Archive member included to satisfy reference by file (symbol)

/usr/lib/x86_64-linux-gnu/libc_nonshared.a(elf-init.oS)
                              /usr/lib/gcc/x86_64-linux-gnu/4.8/../../../x86_64-linux-gnu/crt1.o (__libc_csu_init)

As-needed library included to satisfy reference by file (symbol)

libstdc++.so.6                tetgen-tetgen.o (_Znam@@GLIBCXX_3.4)
libm.so.6                     tetgen-tetgen.o (cos@@GLIBC_2.2.5)
libgcc_s.so.1                 tetgen-tetgen.o (_Unwind_Resume@@GCC_3.0)
libc.so.6                     tetgen-tetgen.o (strcpy@@GLIBC_2.2.5)

Discarded input sections

 .rodata.cst4   0x0000000000000000        0x4 /usr/lib/gcc/x86_64-linux-gnu/4.8/../../../x86_64-linux-gnu/crt1.o
 .data          0x0000000000000000        0x4 /usr/lib/gcc/x86_64-linux-gnu/4.8/../../../x86_64-linux-gnu/crt1.o
 .bss           0x0000000000000000        0x0 /usr/lib/gcc/x86_64-linux-gnu/4.8/../../../x86_64-linux-gnu/crt1.o
 .note.GNU-stack
                0x0000000000000000        0x0 /usr/lib/gcc/x86_64-linux-gnu/4.8/../../../x86_64-linux-gnu/crt1.o
 .gnu_debuglink
                0x0000000000000000        0xc /usr/lib/gcc/x86_64-linux-gnu/4.8/../../../x86_64-linux-gnu/crt1.o
 .text          0x0000000000000000        0x0 /usr/lib/gcc/x86_64-linux-gnu/4.8/../../../x86_64-linux-gnu/crti.o
 .data          0x0000000000000000        0x0 /usr/lib/gcc/x86_64-linux-gnu/4.8/../../../x86_64-linux-gnu/crti.o
 .bss           0x0000000000000000        0x0 /usr/lib/gcc/x86_64-linux-gnu/4.8/../../../x86_64-linux-gnu/crti.o
 .note.GNU-stack
                0x0000000000000000        0x0 /usr/lib/gcc/x86_64-linux-gnu/4.8/../../../x86_64-linux-gnu/crti.o
 .gnu_debuglink
                0x0000000000000000        0xc /usr/lib/gcc/x86_64-linux-gnu/4.8/../../../x86_64-linux-gnu/crti.o
 .data          0x0000000000000000        0x8 /usr/lib/gcc/x86_64-linux-gnu/4.8/crtbegin.o
 .note.GNU-stack
                0x0000000000000000        0x0 /usr/lib/gcc/x86_64-linux-gnu/4.8/crtbegin.o
 .text          0x0000000000000000        0x0 tetgen-predicates.o
 .data          0x0000000000000000        0x0 tetgen-predicates.o
 .bss           0x0000000000000000        0x0 tetgen-predicates.o
 .text._Z14grow_expansioniPddS_
                0x0000000000000000       0xeb tetgen-predicates.o
 .text._Z23grow_expansion_zeroelimiPddS_
                0x0000000000000000      0x135 tetgen-predicates.o
 .text._Z13expansion_sumiPdiS_S_
                0x0000000000000000      0x1f7 tetgen-predicates.o
 .text._Z23expansion_sum_zeroelim1iPdiS_S_
                0x0000000000000000      0x270 tetgen-predicates.o
 .text._Z23expansion_sum_zeroelim2iPdiS_S_
                0x0000000000000000      0x250 tetgen-predicates.o
 .text._Z18fast_expansion_sumiPdiS_S_
                0x0000000000000000      0x4ab tetgen-predicates.o
 .text._Z20linear_expansion_sumiPdiS_S_
                0x0000000000000000      0x396 tetgen-predicates.o
 .text._Z29linear_expansion_sum_zeroelimiPdiS_S_
                0x0000000000000000      0x3df tetgen-predicates.o
 .text._Z15scale_expansioniPddS_
                0x0000000000000000      0x3ac tetgen-predicates.o
 .text._Z8compressiPdS_
                0x0000000000000000      0x1af tetgen-predicates.o
 .text._Z12orient2dfastPdS_S_
                0x0000000000000000       0xb0 tetgen-predicates.o
 .text._Z13orient2dexactPdS_S_
                0x0000000000000000     0x1196 tetgen-predicates.o
 .text._Z12orient2dslowPdS_S_
                0x0000000000000000     0x1d79 tetgen-predicates.o
 .text._Z13orient2dadaptPdS_S_d
                0x0000000000000000     0x1a55 tetgen-predicates.o
 .text._Z8orient2dPdS_S_
                0x0000000000000000      0x188 tetgen-predicates.o
 .text._Z12orient3dfastPdS_S_S_
                0x0000000000000000      0x19c tetgen-predicates.o
 .text._Z13orient3dexactPdS_S_S_
                0x0000000000000000     0x2578 tetgen-predicates.o
 .text._Z12orient3dslowPdS_S_S_
                0x0000000000000000     0x5846 tetgen-predicates.o
 .text._Z12incirclefastPdS_S_S_
                0x0000000000000000      0x1ca tetgen-predicates.o
 .text._Z13incircleexactPdS_S_S_
                0x0000000000000000     0x2906 tetgen-predicates.o
 .text._Z12incircleslowPdS_S_S_
                0x0000000000000000     0x5f33 tetgen-predicates.o
 .text._Z13incircleadaptPdS_S_S_d
                0x0000000000000000     0x803a tetgen-predicates.o
 .text._Z8incirclePdS_S_S_
                0x0000000000000000      0x3b8 tetgen-predicates.o
 .text._Z12inspherefastPdS_S_S_S_
                0x0000000000000000      0x514 tetgen-predicates.o
 .text._Z12insphereslowPdS_S_S_S_
                0x0000000000000000     0xc783 tetgen-predicates.o
 .note.GNU-stack
                0x0000000000000000        0x0 tetgen-predicates.o
 .group         0x0000000000000000        0x8 tetgen-tetgen.o
 .group         0x0000000000000000        0x8 tetgen-tetgen.o
 .group         0x0000000000000000        0x8 tetgen-tetgen.o
 .group         0x0000000000000000        0x8 tetgen-tetgen.o
 .group         0x0000000000000000        0x8 tetgen-tetgen.o
 .group         0x0000000000000000        0x8 tetgen-tetgen.o
 .group         0x0000000000000000        0x8 tetgen-tetgen.o
 .group         0x0000000000000000        0x8 tetgen-tetgen.o
 .group         0x0000000000000000        0x8 tetgen-tetgen.o
 .group         0x0000000000000000        0x8 tetgen-tetgen.o
 .group         0x0000000000000000        0x8 tetgen-tetgen.o
 .group         0x0000000000000000        0x8 tetgen-tetgen.o
 .group         0x0000000000000000        0x8 tetgen-tetgen.o
 .group         0x0000000000000000        0x8 tetgen-tetgen.o
 .group         0x0000000000000000        0x8 tetgen-tetgen.o
 .group         0x0000000000000000        0x8 tetgen-tetgen.o
 .group         0x0000000000000000        0xc tetgen-tetgen.o
 .group         0x0000000000000000        0x8 tetgen-tetgen.o
 .group         0x0000000000000000        0x8 tetgen-tetgen.o
 .group         0x0000000000000000        0x8 tetgen-tetgen.o
 .group         0x0000000000000000        0x8 tetgen-tetgen.o
 .group         0x0000000000000000        0x8 tetgen-tetgen.o
 .group         0x0000000000000000        0x8 tetgen-tetgen.o
 .group         0x0000000000000000        0x8 tetgen-tetgen.o
 .group         0x0000000000000000        0x8 tetgen-tetgen.o
 .group         0x0000000000000000        0x8 tetgen-tetgen.o
 .group         0x0000000000000000        0x8 tetgen-tetgen.o
 .group         0x0000000000000000        0x8 tetgen-tetgen.o
 .group         0x0000000000000000        0x8 tetgen-tetgen.o
 .group         0x0000000000000000        0x8 tetgen-tetgen.o
 .group         0x0000000000000000        0x8 tetgen-tetgen.o
 .group         0x0000000000000000        0x8 tetgen-tetgen.o
 .group         0x0000000000000000        0x8 tetgen-tetgen.o
 .group         0x0000000000000000        0x8 tetgen-tetgen.o
 .group         0x0000000000000000        0x8 tetgen-tetgen.o
 .group         0x0000000000000000        0x8 tetgen-tetgen.o
 .group         0x0000000000000000        0x8 tetgen-tetgen.o
 .group         0x0000000000000000        0x8 tetgen-tetgen.o
 .group         0x0000000000000000        0x8 tetgen-tetgen.o
 .group         0x0000000000000000        0x8 tetgen-tetgen.o
 .group         0x0000000000000000        0x8 tetgen-tetgen.o
 .group         0x0000000000000000        0x8 tetgen-tetgen.o
 .group         0x0000000000000000        0x8 tetgen-tetgen.o
 .group         0x0000000000000000        0x8 tetgen-tetgen.o
 .group         0x0000000000000000        0x8 tetgen-tetgen.o
 .group         0x0000000000000000        0x8 tetgen-tetgen.o
 .group         0x0000000000000000        0x8 tetgen-tetgen.o
 .group         0x0000000000000000        0x8 tetgen-tetgen.o
 .group         0x0000000000000000        0x8 tetgen-tetgen.o
 .group         0x0000000000000000        0x8 tetgen-tetgen.o
 .group         0x0000000000000000        0x8 tetgen-tetgen.o
 .group         0x0000000000000000        0x8 tetgen-tetgen.o
 .group         0x0000000000000000        0x8 tetgen-tetgen.o
 .group         0x0000000000000000        0x8 tetgen-tetgen.o
 .group         0x0000000000000000        0x8 tetgen-tetgen.o
 .group         0x0000000000000000        0x8 tetgen-tetgen.o
 .group         0x0000000000000000        0x8 tetgen-tetgen.o
 .group         0x0000000000000000        0x8 tetgen-tetgen.o
 .group         0x0000000000000000        0x8 tetgen-tetgen.o
 .group         0x0000000000000000        0x8 tetgen-tetgen.o
 .group         0x0000000000000000        0x8 tetgen-tetgen.o
 .group         0x0000000000000000        0x8 tetgen-tetgen.o
 .group         0x0000000000000000        0x8 tetgen-tetgen.o
 .group         0x0000000000000000        0x8 tetgen-tetgen.o
 .group         0x0000000000000000        0x8 tetgen-tetgen.o
 .group         0x0000000000000000        0x8 tetgen-tetgen.o
 .group         0x0000000000000000        0x8 tetgen-tetgen.o
 .group         0x0000000000000000        0x8 tetgen-tetgen.o
 .group         0x0000000000000000        0x8 tetgen-tetgen.o
 .group         0x0000000000000000        0x8 tetgen-tetgen.o
 .group         0x0000000000000000        0x8 tetgen-tetgen.o
 .group         0x0000000000000000        0x8 tetgen-tetgen.o
 .group         0x0000000000000000        0x8 tetgen-tetgen.o
 .group         0x0000000000000000        0x8 tetgen-tetgen.o
 .group         0x0000000000000000        0x8 tetgen-tetgen.o
 .group         0x0000000000000000        0x8 tetgen-tetgen.o
 .group         0x0000000000000000        0x8 tetgen-tetgen.o
 .group         0x0000000000000000        0x8 tetgen-tetgen.o
 .group         0x0000000000000000        0x8 tetgen-tetgen.o
 .group         0x0000000000000000        0x8 tetgen-tetgen.o
 .group         0x0000000000000000        0x8 tetgen-tetgen.o
 .group         0x0000000000000000        0x8 tetgen-tetgen.o
 .group         0x0000000000000000        0x8 tetgen-tetgen.o
 .group         0x0000000000000000        0x8 tetgen-tetgen.o
 .group         0x0000000000000000        0x8 tetgen-tetgen.o
 .group         0x0000000000000000        0x8 tetgen-tetgen.o
 .group         0x0000000000000000        0x8 tetgen-tetgen.o
 .group         0x0000000000000000        0x8 tetgen-tetgen.o
 .group         0x0000000000000000        0x8 tetgen-tetgen.o
 .group         0x0000000000000000        0x8 tetgen-tetgen.o
 .group         0x0000000000000000        0x8 tetgen-tetgen.o
 .group         0x0000000000000000        0x8 tetgen-tetgen.o
 .group         0x0000000000000000        0x8 tetgen-tetgen.o
 .group         0x0000000000000000        0x8 tetgen-tetgen.o
 .group         0x0000000000000000        0x8 tetgen-tetgen.o
 .group         0x0000000000000000        0x8 tetgen-tetgen.o
 .group         0x0000000000000000        0x8 tetgen-tetgen.o
 .group         0x0000000000000000        0x8 tetgen-tetgen.o
 .group         0x0000000000000000        0x8 tetgen-tetgen.o
 .group         0x0000000000000000        0x8 tetgen-tetgen.o
 .group         0x0000000000000000        0x8 tetgen-tetgen.o
 .group         0x0000000000000000        0x8 tetgen-tetgen.o
 .group         0x0000000000000000        0x8 tetgen-tetgen.o
 .group         0x0000000000000000        0x8 tetgen-tetgen.o
 .group         0x0000000000000000        0x8 tetgen-tetgen.o
 .group         0x0000000000000000        0x8 tetgen-tetgen.o
 .group         0x0000000000000000        0x8 tetgen-tetgen.o
 .group         0x0000000000000000        0x8 tetgen-tetgen.o
 .group         0x0000000000000000        0x8 tetgen-tetgen.o
 .group         0x0000000000000000        0x8 tetgen-tetgen.o
 .group         0x0000000000000000        0x8 tetgen-tetgen.o
 .group         0x0000000000000000        0x8 tetgen-tetgen.o
 .group         0x0000000000000000        0x8 tetgen-tetgen.o
 .group         0x0000000000000000        0x8 tetgen-tetgen.o
 .group         0x0000000000000000        0x8 tetgen-tetgen.o
 .group         0x0000000000000000        0x8 tetgen-tetgen.o
 .group         0x0000000000000000        0x8 tetgen-tetgen.o
 .group         0x0000000000000000        0x8 tetgen-tetgen.o
 .group         0x0000000000000000        0x8 tetgen-tetgen.o
 .group         0x0000000000000000        0x8 tetgen-tetgen.o
 .group         0x0000000000000000        0x8 tetgen-tetgen.o
 .group         0x0000000000000000        0x8 tetgen-tetgen.o
 .group         0x0000000000000000        0x8 tetgen-tetgen.o
 .group         0x0000000000000000        0x8 tetgen-tetgen.o
 .group         0x0000000000000000        0x8 tetgen-tetgen.o
 .text          0x0000000000000000        0x0 tetgen-tetgen.o
 .data          0x0000000000000000        0x0 tetgen-tetgen.o
 .bss           0x0000000000000000        0x0 tetgen-tetgen.o
 .text._ZN8tetgenio10save_nodesEPc
                0x0000000000000000      0x371 tetgen-tetgen.o
 .text._ZN8tetgenio13save_elementsEPc
                0x0000000000000000      0x233 tetgen-tetgen.o
 .text._ZN8tetgenio10save_facesEPc
                0x0000000000000000      0x22b tetgen-tetgen.o
 .text._ZN8tetgenio10save_edgesEPc
                0x0000000000000000      0x1e9 tetgen-tetgen.o
 .text._ZN8tetgenio14save_neighborsEPc
                0x0000000000000000      0x28f tetgen-tetgen.o
 .text._ZN8tetgenio9save_polyEPc
                0x0000000000000000      0x9c5 tetgen-tetgen.o
 .text._ZN10tetgenmesh4list7hasitemEPv
                0x0000000000000000       0x77 tetgen-tetgen.o
 .text._ZN10tetgenmesh4list4sortEv
                0x0000000000000000       0x39 tetgen-tetgen.o
 .text._ZN10tetgenmesh4link6insertEiPv
                0x0000000000000000       0xed tetgen-tetgen.o
 .text._ZN10tetgenmesh4link7getitemEv
                0x0000000000000000       0x60 tetgen-tetgen.o
 .text._ZN10tetgenmesh4link7hasitemEPv
                0x0000000000000000       0x90 tetgen-tetgen.o
 .data._ZN10tetgenmesh9plus1mod3E
                0x0000000000000000        0xc tetgen-tetgen.o
 .data._ZN10tetgenmesh10minus1mod3E
                0x0000000000000000        0xc tetgen-tetgen.o
 .text._ZN10tetgenmesh7findorgEPNS_4faceEPd
                0x0000000000000000       0xb0 tetgen-tetgen.o
 .text._ZN10tetgenmesh8findfaceEPNS_7trifaceEPdS2_S2_
                0x0000000000000000      0x667 tetgen-tetgen.o
 .text._ZN10tetgenmesh11getonextsegEPNS_4faceES1_
                0x0000000000000000      0x185 tetgen-tetgen.o
 .text._ZN10tetgenmesh12getseghasorgEPNS_4faceEPd
                0x0000000000000000      0x22b tetgen-tetgen.o
 .text._ZN10tetgenmesh15getsubsegfarorgEPNS_4faceE
                0x0000000000000000       0xef tetgen-tetgen.o
 .text._ZN10tetgenmesh16getsubsegfardestEPNS_4faceE
                0x0000000000000000       0xef tetgen-tetgen.o
 .text._ZL7initm44ddddddddddddddddPA4_d
                0x0000000000000000      0x11e tetgen-tetgen.o
 .text._ZL5m4xv4PdPA4_dS_
                0x0000000000000000      0x21a tetgen-tetgen.o
 .text._ZN10tetgenmesh14tri_edge_interEPdS0_S0_S0_S0_
                0x0000000000000000       0xa6 tetgen-tetgen.o
 .text._ZN10tetgenmesh13shortdistanceEPdS0_S0_
                0x0000000000000000      0x1c7 tetgen-tetgen.o
 .text._ZN10tetgenmesh13shortdistanceEPdS0_S0_S0_
                0x0000000000000000       0x6d tetgen-tetgen.o
 .text._ZN10tetgenmesh15edgeorthonormalEPdS0_S0_S0_
                0x0000000000000000      0x1d9 tetgen-tetgen.o
 .text._ZN10tetgenmesh15inscribedsphereEPdS0_S0_S0_S0_S0_
                0x0000000000000000      0x2f7 tetgen-tetgen.o
 .text._ZN10tetgenmesh11rotatepointEPddS0_S0_
                0x0000000000000000      0xdbf tetgen-tetgen.o
 .text._ZN10tetgenmesh13spherelineintEPdS0_S0_dS0_
                0x0000000000000000      0x4cb tetgen-tetgen.o
 .text._ZN10tetgenmesh11linelineintEPdS0_S0_S0_S0_
                0x0000000000000000      0x51c tetgen-tetgen.o
 .text._ZN10tetgenmesh12planelineintEPdS0_S0_S0_S0_S0_S0_
                0x0000000000000000      0x225 tetgen-tetgen.o
 .text._ZN10tetgenmesh8undoflipEPNS_7badfaceE
                0x0000000000000000       0xd2 tetgen-tetgen.o
 .text._ZN10tetgenmesh18unsplittetrahedronEPNS_7trifaceE
                0x0000000000000000      0x562 tetgen-tetgen.o
 .text._ZN10tetgenmesh14unsplittetfaceEPNS_7trifaceE
                0x0000000000000000      0x917 tetgen-tetgen.o
 .text._ZN10tetgenmesh14unsplitsubfaceEPNS_4faceE
                0x0000000000000000      0x6c3 tetgen-tetgen.o
 .text._ZN10tetgenmesh14unsplittetedgeEPNS_7trifaceE
                0x0000000000000000      0xb09 tetgen-tetgen.o
 .text._ZN10tetgenmesh14unsplitsubedgeEPNS_4faceE
                0x0000000000000000      0x707 tetgen-tetgen.o
 .text._ZN10tetgenmesh8undositeENS_16insertsiteresultEPNS_7trifaceEPdS3_S3_S3_
                0x0000000000000000      0x10c tetgen-tetgen.o
 .text._ZN10tetgenmesh22formbowatcavitysegquadEPdPNS_4listES2_
                0x0000000000000000      0x46a tetgen-tetgen.o
 .text._ZN10tetgenmesh16findcollapseedgeEPdPS0_PNS_4listES3_
                0x0000000000000000      0x768 tetgen-tetgen.o
 .text._ZN10tetgenmesh12collapseedgeEPdS0_PNS_4listES2_
                0x0000000000000000      0x462 tetgen-tetgen.o
 .text._ZN10tetgenmesh17collapseedgepointEPdPNS_4listES2_S2_
                0x0000000000000000      0x257 tetgen-tetgen.o
 .text._ZN10tetgenmesh13enqueuebadtetEPNS_7trifaceEdPd
                0x0000000000000000      0x29e tetgen-tetgen.o
 .text._ZN10tetgenmesh15checkdegeneracyEd
                0x0000000000000000      0x355 tetgen-tetgen.o
 .text._ZN10tetgenmesh21algorithmicstatisticsEv
                0x0000000000000000      0x347 tetgen-tetgen.o
 .rodata._ZZN10tetgenmesh11getonextsegEPNS_4faceES1_E19__PRETTY_FUNCTION__
                0x0000000000000000       0x43 tetgen-tetgen.o
 .rodata._ZZN10tetgenmesh13shortdistanceEPdS0_S0_E19__PRETTY_FUNCTION__
                0x0000000000000000       0x3c tetgen-tetgen.o
 .rodata._ZZN10tetgenmesh14unsplittetedgeEPNS_7trifaceEE19__PRETTY_FUNCTION__
                0x0000000000000000       0x36 tetgen-tetgen.o
 .rodata._ZZN10tetgenmesh14unsplitsubedgeEPNS_4faceEE19__PRETTY_FUNCTION__
                0x0000000000000000       0x33 tetgen-tetgen.o
 .rodata._ZZN10tetgenmesh8undositeENS_16insertsiteresultEPNS_7trifaceEPdS3_S3_S3_E19__PRETTY_FUNCTION__
                0x0000000000000000       0x9a tetgen-tetgen.o
 .rodata._ZZN10tetgenmesh12collapseedgeEPdS0_PNS_4listES2_E19__PRETTY_FUNCTION__
                0x0000000000000000       0x6a tetgen-tetgen.o
 .note.GNU-stack
                0x0000000000000000        0x0 tetgen-tetgen.o
 .data          0x0000000000000000        0x0 /usr/lib/x86_64-linux-gnu/libc_nonshared.a(elf-init.oS)
 .bss           0x0000000000000000        0x0 /usr/lib/x86_64-linux-gnu/libc_nonshared.a(elf-init.oS)
 .note.GNU-stack
                0x0000000000000000        0x0 /usr/lib/x86_64-linux-gnu/libc_nonshared.a(elf-init.oS)
 .text          0x0000000000000000        0x0 /usr/lib/gcc/x86_64-linux-gnu/4.8/crtend.o
 .data          0x0000000000000000        0x0 /usr/lib/gcc/x86_64-linux-gnu/4.8/crtend.o
 .bss           0x0000000000000000        0x0 /usr/lib/gcc/x86_64-linux-gnu/4.8/crtend.o
 .note.GNU-stack
                0x0000000000000000        0x0 /usr/lib/gcc/x86_64-linux-gnu/4.8/crtend.o
 .text          0x0000000000000000        0x0 /usr/lib/gcc/x86_64-linux-gnu/4.8/../../../x86_64-linux-gnu/crtn.o
 .data          0x0000000000000000        0x0 /usr/lib/gcc/x86_64-linux-gnu/4.8/../../../x86_64-linux-gnu/crtn.o
 .bss           0x0000000000000000        0x0 /usr/lib/gcc/x86_64-linux-gnu/4.8/../../../x86_64-linux-gnu/crtn.o
 .note.GNU-stack
                0x0000000000000000        0x0 /usr/lib/gcc/x86_64-linux-gnu/4.8/../../../x86_64-linux-gnu/crtn.o
 .gnu_debuglink
                0x0000000000000000        0xc /usr/lib/gcc/x86_64-linux-gnu/4.8/../../../x86_64-linux-gnu/crtn.o

Memory Configuration

Name             Origin             Length             Attributes
*default*        0x0000000000000000 0xffffffffffffffff

Linker script and memory map

LOAD /usr/lib/gcc/x86_64-linux-gnu/4.8/../../../x86_64-linux-gnu/crt1.o
LOAD /usr/lib/gcc/x86_64-linux-gnu/4.8/../../../x86_64-linux-gnu/crti.o
LOAD /usr/lib/gcc/x86_64-linux-gnu/4.8/crtbegin.o
LOAD tetgen-predicates.o
LOAD tetgen-tetgen.o
LOAD /root/centos6-x86_64-packages/itk/current/lib/InsightToolkit/libITKIO.a
LOAD /root/centos6-x86_64-packages/itk/current/lib/InsightToolkit/libITKAlgorithms.a
LOAD /root/centos6-x86_64-packages/itk/current/lib/InsightToolkit/libITKCommon.a
LOAD /root/centos6-x86_64-packages/itk/current/lib/InsightToolkit/libITKNumerics.a
LOAD /root/centos6-x86_64-packages/itk/current/lib/InsightToolkit/libITKMetaIO.a
LOAD /root/centos6-x86_64-packages/itk/current/lib/InsightToolkit/libITKniftiio.a
LOAD /root/centos6-x86_64-packages/itk/current/lib/InsightToolkit/libITKNrrdIO.a
LOAD /root/centos6-x86_64-packages/itk/current/lib/InsightToolkit/libitkpng.a
LOAD /root/centos6-x86_64-packages/itk/current/lib/InsightToolkit/libitksys.a
LOAD /root/centos6-x86_64-packages/itk/current/lib/InsightToolkit/libitktiff.a
LOAD /root/centos6-x86_64-packages/itk/current/lib/InsightToolkit/libitkv3p_netlib.a
LOAD /root/centos6-x86_64-packages/itk/current/lib/InsightToolkit/libitkzlib.a
LOAD /root/centos6-x86_64-packages/itk/current/lib/InsightToolkit/libitkgdcm.a
LOAD /root/centos6-x86_64-packages/itk/current/lib/InsightToolkit/libitkopenjpeg.a
LOAD /root/centos6-x86_64-packages/itk/current/lib/InsightToolkit/libitkjpeg8.a
LOAD /root/centos6-x86_64-packages/itk/current/lib/InsightToolkit/libitkjpeg12.a
LOAD /root/centos6-x86_64-packages/itk/current/lib/InsightToolkit/libitkjpeg16.a
LOAD /root/centos6-x86_64-packages/itk/current/lib/InsightToolkit/libITKDICOMParser.a
LOAD /usr/lib/x86_64-linux-gnu/libuuid.a
LOAD /usr/lib/gcc/x86_64-linux-gnu/4.8/../../../x86_64-linux-gnu/librt.so
LOAD /usr/lib/gcc/x86_64-linux-gnu/4.8/../../../x86_64-linux-gnu/libz.so
LOAD /usr/lib/gcc/x86_64-linux-gnu/4.8/../../../x86_64-linux-gnu/libcrypt.so
LOAD /usr/lib/gcc/x86_64-linux-gnu/4.8/../../../x86_64-linux-gnu/libdl.so
LOAD /usr/lib/gcc/x86_64-linux-gnu/4.8/../../../x86_64-linux-gnu/libpthread.so
START GROUP
LOAD /lib/x86_64-linux-gnu/libpthread.so.0
LOAD /usr/lib/x86_64-linux-gnu/libpthread_nonshared.a
END GROUP
LOAD /root/centos6-x86_64-packages/vxl/current/lib/libvnl_algo.a
LOAD /root/centos6-x86_64-packages/vxl/current/lib/libvnl.a
LOAD /root/centos6-x86_64-packages/vxl/current/lib/libvcl.a
LOAD /root/centos6-x86_64-packages/vxl/current/lib/libnetlib.a
LOAD /root/centos6-x86_64-packages/vxl/current/lib/libv3p_netlib.a
LOAD /usr/lib/gcc/x86_64-linux-gnu/4.8/libstdc++.so
LOAD /usr/lib/gcc/x86_64-linux-gnu/4.8/../../../x86_64-linux-gnu/libm.so
LOAD /usr/lib/gcc/x86_64-linux-gnu/4.8/libgomp.so
LOAD /usr/lib/gcc/x86_64-linux-gnu/4.8/libgcc_s.so
LOAD /usr/lib/gcc/x86_64-linux-gnu/4.8/libgcc.a
LOAD /usr/lib/gcc/x86_64-linux-gnu/4.8/../../../x86_64-linux-gnu/libpthread.so
START GROUP
LOAD /lib/x86_64-linux-gnu/libpthread.so.0
LOAD /usr/lib/x86_64-linux-gnu/libpthread_nonshared.a
END GROUP
LOAD /usr/lib/gcc/x86_64-linux-gnu/4.8/../../../x86_64-linux-gnu/libc.so
START GROUP
LOAD /lib/x86_64-linux-gnu/libc.so.6
LOAD /usr/lib/x86_64-linux-gnu/libc_nonshared.a
LOAD /lib/x86_64-linux-gnu/ld-linux-x86-64.so.2
END GROUP
LOAD /usr/lib/gcc/x86_64-linux-gnu/4.8/libgcc_s.so
LOAD /usr/lib/gcc/x86_64-linux-gnu/4.8/libgcc.a
LOAD /usr/lib/gcc/x86_64-linux-gnu/4.8/crtend.o
LOAD /usr/lib/gcc/x86_64-linux-gnu/4.8/../../../x86_64-linux-gnu/crtn.o
                0x0000000000400000                PROVIDE (__executable_start, 0x400000)
                0x0000000000400238                . = (0x400000 + SIZEOF_HEADERS)

.interp         0x0000000000400238       0x1c
 *(.interp)
 .interp        0x0000000000400238       0x1c /usr/lib/gcc/x86_64-linux-gnu/4.8/../../../x86_64-linux-gnu/crt1.o

.note.ABI-tag   0x0000000000400254       0x20
 .note.ABI-tag  0x0000000000400254       0x20 /usr/lib/gcc/x86_64-linux-gnu/4.8/../../../x86_64-linux-gnu/crt1.o

.note.gnu.build-id
                0x0000000000400274       0x24
 *(.note.gnu.build-id)
 .note.gnu.build-id
                0x0000000000400274       0x24 /usr/lib/gcc/x86_64-linux-gnu/4.8/../../../x86_64-linux-gnu/crt1.o

.hash
 *(.hash)

.gnu.hash       0x0000000000400298       0x24
 *(.gnu.hash)
 .gnu.hash      0x0000000000400298       0x24 /usr/lib/gcc/x86_64-linux-gnu/4.8/../../../x86_64-linux-gnu/crt1.o

.dynsym         0x00000000004002c0      0x408
 *(.dynsym)
 .dynsym        0x00000000004002c0      0x408 /usr/lib/gcc/x86_64-linux-gnu/4.8/../../../x86_64-linux-gnu/crt1.o

.dynstr         0x00000000004006c8      0x1ef
 *(.dynstr)
 .dynstr        0x00000000004006c8      0x1ef /usr/lib/gcc/x86_64-linux-gnu/4.8/../../../x86_64-linux-gnu/crt1.o

.gnu.version    0x00000000004008b8       0x56
 *(.gnu.version)
 .gnu.version   0x00000000004008b8       0x56 /usr/lib/gcc/x86_64-linux-gnu/4.8/../../../x86_64-linux-gnu/crt1.o

.gnu.version_d  0x0000000000400910        0x0
 *(.gnu.version_d)
 .gnu.version_d
                0x0000000000000000        0x0 /usr/lib/gcc/x86_64-linux-gnu/4.8/../../../x86_64-linux-gnu/crt1.o

.gnu.version_r  0x0000000000400910       0xb0
 *(.gnu.version_r)
 .gnu.version_r
                0x0000000000400910       0xb0 /usr/lib/gcc/x86_64-linux-gnu/4.8/../../../x86_64-linux-gnu/crt1.o

.rela.dyn       0x00000000004009c0       0x18
 *(.rela.init)
 *(.rela.text .rela.text.* .rela.gnu.linkonce.t.*)
 .rela.text     0x0000000000000000        0x0 /usr/lib/gcc/x86_64-linux-gnu/4.8/../../../x86_64-linux-gnu/crt1.o
 .rela.text._ZN10tetgenmesh4listD2Ev
                0x0000000000000000        0x0 /usr/lib/gcc/x86_64-linux-gnu/4.8/../../../x86_64-linux-gnu/crt1.o
 .rela.text._ZN10tetgenmesh4linkC2EiPFiPKvS2_Ei
                0x0000000000000000        0x0 /usr/lib/gcc/x86_64-linux-gnu/4.8/../../../x86_64-linux-gnu/crt1.o
 .rela.text._ZN10tetgenmesh5queueC2Eii
                0x0000000000000000        0x0 /usr/lib/gcc/x86_64-linux-gnu/4.8/../../../x86_64-linux-gnu/crt1.o
 .rela.text._Z15terminatetetgeni
                0x0000000000000000        0x0 /usr/lib/gcc/x86_64-linux-gnu/4.8/../../../x86_64-linux-gnu/crt1.o
 .rela.text._ZN8tetgenio12deinitializeEv
                0x0000000000000000        0x0 /usr/lib/gcc/x86_64-linux-gnu/4.8/../../../x86_64-linux-gnu/crt1.o
 .rela.text._ZN8tetgenio14load_node_callEP8_IO_FILEiPc
                0x0000000000000000        0x0 /usr/lib/gcc/x86_64-linux-gnu/4.8/../../../x86_64-linux-gnu/crt1.o
 .rela.text._ZN8tetgenio9load_nodeEPc
                0x0000000000000000        0x0 /usr/lib/gcc/x86_64-linux-gnu/4.8/../../../x86_64-linux-gnu/crt1.o
 .rela.text._ZN8tetgenio13load_addnodesEPc
                0x0000000000000000        0x0 /usr/lib/gcc/x86_64-linux-gnu/4.8/../../../x86_64-linux-gnu/crt1.o
 .rela.text._ZN8tetgenio8load_pbcEPc
                0x0000000000000000        0x0 /usr/lib/gcc/x86_64-linux-gnu/4.8/../../../x86_64-linux-gnu/crt1.o
 .rela.text._ZN8tetgenio8load_varEPc
                0x0000000000000000        0x0 /usr/lib/gcc/x86_64-linux-gnu/4.8/../../../x86_64-linux-gnu/crt1.o
 .rela.text._ZN8tetgenio8load_mtrEPc
                0x0000000000000000        0x0 /usr/lib/gcc/x86_64-linux-gnu/4.8/../../../x86_64-linux-gnu/crt1.o
 .rela.text._ZN8tetgenio9load_polyEPc
                0x0000000000000000        0x0 /usr/lib/gcc/x86_64-linux-gnu/4.8/../../../x86_64-linux-gnu/crt1.o
 .rela.text._ZN8tetgenio8load_offEPc
                0x0000000000000000        0x0 /usr/lib/gcc/x86_64-linux-gnu/4.8/../../../x86_64-linux-gnu/crt1.o
 .rela.text._ZN8tetgenio8load_plyEPc
                0x0000000000000000        0x0 /usr/lib/gcc/x86_64-linux-gnu/4.8/../../../x86_64-linux-gnu/crt1.o
 .rela.text._ZN8tetgenio8load_stlEPc
                0x0000000000000000        0x0 /usr/lib/gcc/x86_64-linux-gnu/4.8/../../../x86_64-linux-gnu/crt1.o
 .rela.text._ZN8tetgenio10load_meditEPc
                0x0000000000000000        0x0 /usr/lib/gcc/x86_64-linux-gnu/4.8/../../../x86_64-linux-gnu/crt1.o
 .rela.text._ZN8tetgenio12load_tetmeshEPc
                0x0000000000000000        0x0 /usr/lib/gcc/x86_64-linux-gnu/4.8/../../../x86_64-linux-gnu/crt1.o
 .rela.text._ZN8tetgenio10save_nodesEPc
                0x0000000000000000        0x0 /usr/lib/gcc/x86_64-linux-gnu/4.8/../../../x86_64-linux-gnu/crt1.o
 .rela.text._ZN8tetgenio13save_elementsEPc
                0x0000000000000000        0x0 /usr/lib/gcc/x86_64-linux-gnu/4.8/../../../x86_64-linux-gnu/crt1.o
 .rela.text._ZN8tetgenio10save_facesEPc
                0x0000000000000000        0x0 /usr/lib/gcc/x86_64-linux-gnu/4.8/../../../x86_64-linux-gnu/crt1.o
 .rela.text._ZN8tetgenio10save_edgesEPc
                0x0000000000000000        0x0 /usr/lib/gcc/x86_64-linux-gnu/4.8/../../../x86_64-linux-gnu/crt1.o
 .rela.text._ZN8tetgenio14save_neighborsEPc
                0x0000000000000000        0x0 /usr/lib/gcc/x86_64-linux-gnu/4.8/../../../x86_64-linux-gnu/crt1.o
 .rela.text._ZN8tetgenio9save_polyEPc
                0x0000000000000000        0x0 /usr/lib/gcc/x86_64-linux-gnu/4.8/../../../x86_64-linux-gnu/crt1.o
 .rela.text._ZN8tetgenio8readlineEPcP8_IO_FILEPi
                0x0000000000000000        0x0 /usr/lib/gcc/x86_64-linux-gnu/4.8/../../../x86_64-linux-gnu/crt1.o
 .rela.text._ZN8tetgenio14readnumberlineEPcP8_IO_FILES0_
                0x0000000000000000        0x0 /usr/lib/gcc/x86_64-linux-gnu/4.8/../../../x86_64-linux-gnu/crt1.o
 .rela.text._ZN14tetgenbehavior11versioninfoEv
                0x0000000000000000        0x0 /usr/lib/gcc/x86_64-linux-gnu/4.8/../../../x86_64-linux-gnu/crt1.o
 .rela.text._ZN14tetgenbehavior6syntaxEv
                0x0000000000000000        0x0 /usr/lib/gcc/x86_64-linux-gnu/4.8/../../../x86_64-linux-gnu/crt1.o
 .rela.text._ZN14tetgenbehavior5usageEv
                0x0000000000000000        0x0 /usr/lib/gcc/x86_64-linux-gnu/4.8/../../../x86_64-linux-gnu/crt1.o
 .rela.text._ZN14tetgenbehavior17parse_commandlineEiPPc
                0x0000000000000000        0x0 /usr/lib/gcc/x86_64-linux-gnu/4.8/../../../x86_64-linux-gnu/crt1.o
 .rela.text._ZN10tetgenmesh12set_compfuncEPcPiPPFiPKvS3_E
                0x0000000000000000        0x0 /usr/lib/gcc/x86_64-linux-gnu/4.8/../../../x86_64-linux-gnu/crt1.o
 .rela.text._ZN10tetgenmesh4list8listinitEiPFiPKvS2_Eii
                0x0000000000000000        0x0 /usr/lib/gcc/x86_64-linux-gnu/4.8/../../../x86_64-linux-gnu/crt1.o
 .rela.text._ZN10tetgenmesh4list6appendEPv
                0x0000000000000000        0x0 /usr/lib/gcc/x86_64-linux-gnu/4.8/../../../x86_64-linux-gnu/crt1.o
 .rela.text._ZN10tetgenmesh4list6insertEiPv
                0x0000000000000000        0x0 /usr/lib/gcc/x86_64-linux-gnu/4.8/../../../x86_64-linux-gnu/crt1.o
 .rela.text._ZN10tetgenmesh4list3delEii
                0x0000000000000000        0x0 /usr/lib/gcc/x86_64-linux-gnu/4.8/../../../x86_64-linux-gnu/crt1.o
 .rela.text._ZN10tetgenmesh4list4sortEv
                0x0000000000000000        0x0 /usr/lib/gcc/x86_64-linux-gnu/4.8/../../../x86_64-linux-gnu/crt1.o
 .rela.text._ZN10tetgenmesh10memorypoolD2Ev
                0x0000000000000000        0x0 /usr/lib/gcc/x86_64-linux-gnu/4.8/../../../x86_64-linux-gnu/crt1.o
 .rela.text._ZN10tetgenmesh10memorypool8poolinitEiiNS_8wordtypeEi
                0x0000000000000000        0x0 /usr/lib/gcc/x86_64-linux-gnu/4.8/../../../x86_64-linux-gnu/crt1.o
 .rela.text._ZN10tetgenmesh10memorypool5allocEv
                0x0000000000000000        0x0 /usr/lib/gcc/x86_64-linux-gnu/4.8/../../../x86_64-linux-gnu/crt1.o
 .rela.text._ZN10tetgenmesh4link8linkinitEiPFiPKvS2_Ei
                0x0000000000000000        0x0 /usr/lib/gcc/x86_64-linux-gnu/4.8/../../../x86_64-linux-gnu/crt1.o
 .rela.text._ZN10tetgenmesh4link6locateEi
                0x0000000000000000        0x0 /usr/lib/gcc/x86_64-linux-gnu/4.8/../../../x86_64-linux-gnu/crt1.o
 .rela.text._ZN10tetgenmesh4link3addEPv
                0x0000000000000000        0x0 /usr/lib/gcc/x86_64-linux-gnu/4.8/../../../x86_64-linux-gnu/crt1.o
 .rela.text._ZN10tetgenmesh4link6insertEiPv
                0x0000000000000000        0x0 /usr/lib/gcc/x86_64-linux-gnu/4.8/../../../x86_64-linux-gnu/crt1.o
 .rela.text._ZN10tetgenmesh4link7hasitemEPv
                0x0000000000000000        0x0 /usr/lib/gcc/x86_64-linux-gnu/4.8/../../../x86_64-linux-gnu/crt1.o
 .rela.text._ZN10tetgenmesh3symERNS_7trifaceES1_
                0x0000000000000000        0x0 /usr/lib/gcc/x86_64-linux-gnu/4.8/../../../x86_64-linux-gnu/crt1.o
 .rela.text._ZN10tetgenmesh7symselfERNS_7trifaceE
                0x0000000000000000        0x0 /usr/lib/gcc/x86_64-linux-gnu/4.8/../../../x86_64-linux-gnu/crt1.o
 .rela.text._ZN10tetgenmesh4bondERNS_7trifaceES1_
                0x0000000000000000        0x0 /usr/lib/gcc/x86_64-linux-gnu/4.8/../../../x86_64-linux-gnu/crt1.o
 .rela.text._ZN10tetgenmesh10enextfnextERNS_7trifaceES1_
                0x0000000000000000        0x0 /usr/lib/gcc/x86_64-linux-gnu/4.8/../../../x86_64-linux-gnu/crt1.o
 .rela.text._ZN10tetgenmesh14enextfnextselfERNS_7trifaceE
                0x0000000000000000        0x0 /usr/lib/gcc/x86_64-linux-gnu/4.8/../../../x86_64-linux-gnu/crt1.o
 .rela.text._ZN10tetgenmesh11enext2fnextERNS_7trifaceES1_
                0x0000000000000000        0x0 /usr/lib/gcc/x86_64-linux-gnu/4.8/../../../x86_64-linux-gnu/crt1.o
 .rela.text._ZN10tetgenmesh15enext2fnextselfERNS_7trifaceE
                0x0000000000000000        0x0 /usr/lib/gcc/x86_64-linux-gnu/4.8/../../../x86_64-linux-gnu/crt1.o
 .rela.text._ZN10tetgenmesh6spivotERNS_4faceES1_
                0x0000000000000000        0x0 /usr/lib/gcc/x86_64-linux-gnu/4.8/../../../x86_64-linux-gnu/crt1.o
 .rela.text._ZN10tetgenmesh10spivotselfERNS_4faceE
                0x0000000000000000        0x0 /usr/lib/gcc/x86_64-linux-gnu/4.8/../../../x86_64-linux-gnu/crt1.o
 .rela.text._ZN10tetgenmesh5sbondERNS_4faceES1_
                0x0000000000000000        0x0 /usr/lib/gcc/x86_64-linux-gnu/4.8/../../../x86_64-linux-gnu/crt1.o
 .rela.text._ZN10tetgenmesh6sbond1ERNS_4faceES1_
                0x0000000000000000        0x0 /usr/lib/gcc/x86_64-linux-gnu/4.8/../../../x86_64-linux-gnu/crt1.o
 .rela.text._ZN10tetgenmesh7tspivotERNS_7trifaceERNS_4faceE
                0x0000000000000000        0x0 /usr/lib/gcc/x86_64-linux-gnu/4.8/../../../x86_64-linux-gnu/crt1.o
 .rela.text._ZN10tetgenmesh7stpivotERNS_4faceERNS_7trifaceE
                0x0000000000000000        0x0 /usr/lib/gcc/x86_64-linux-gnu/4.8/../../../x86_64-linux-gnu/crt1.o
 .rela.text._ZN10tetgenmesh6tsbondERNS_7trifaceERNS_4faceE
                0x0000000000000000        0x0 /usr/lib/gcc/x86_64-linux-gnu/4.8/../../../x86_64-linux-gnu/crt1.o
 .rela.text._ZN10tetgenmesh7sspivotERNS_4faceES1_
                0x0000000000000000        0x0 /usr/lib/gcc/x86_64-linux-gnu/4.8/../../../x86_64-linux-gnu/crt1.o
 .rela.text._ZN10tetgenmesh6ssbondERNS_4faceES1_
                0x0000000000000000        0x0 /usr/lib/gcc/x86_64-linux-gnu/4.8/../../../x86_64-linux-gnu/crt1.o
 .rela.text._ZN10tetgenmesh14adjustedgeringERNS_7trifaceEi
                0x0000000000000000        0x0 /usr/lib/gcc/x86_64-linux-gnu/4.8/../../../x86_64-linux-gnu/crt1.o
 .rela.text._ZN10tetgenmesh14adjustedgeringERNS_4faceEi
                0x0000000000000000        0x0 /usr/lib/gcc/x86_64-linux-gnu/4.8/../../../x86_64-linux-gnu/crt1.o
 .rela.text._ZN10tetgenmesh14isfacehaspointEPNS_7trifaceEPd
                0x0000000000000000        0x0 /usr/lib/gcc/x86_64-linux-gnu/4.8/../../../x86_64-linux-gnu/crt1.o
 .rela.text._ZN10tetgenmesh13isfacehasedgeEPNS_4faceEPdS2_
                0x0000000000000000        0x0 /usr/lib/gcc/x86_64-linux-gnu/4.8/../../../x86_64-linux-gnu/crt1.o
 .rela.text._ZN10tetgenmesh11getnextfaceEPNS_7trifaceES1_
                0x0000000000000000        0x0 /usr/lib/gcc/x86_64-linux-gnu/4.8/../../../x86_64-linux-gnu/crt1.o
 .rela.text._ZN10tetgenmesh12getnextsfaceEPNS_4faceES1_
                0x0000000000000000        0x0 /usr/lib/gcc/x86_64-linux-gnu/4.8/../../../x86_64-linux-gnu/crt1.o
 .rela.text._ZN10tetgenmesh8tsspivotEPNS_7trifaceEPNS_4faceE
                0x0000000000000000        0x0 /usr/lib/gcc/x86_64-linux-gnu/4.8/../../../x86_64-linux-gnu/crt1.o
 .rela.text._ZN10tetgenmesh8sstpivotEPNS_4faceEPNS_7trifaceE
                0x0000000000000000        0x0 /usr/lib/gcc/x86_64-linux-gnu/4.8/../../../x86_64-linux-gnu/crt1.o
 .rela.text._ZN10tetgenmesh7findorgEPNS_7trifaceEPd
                0x0000000000000000        0x0 /usr/lib/gcc/x86_64-linux-gnu/4.8/../../../x86_64-linux-gnu/crt1.o
 .rela.text._ZN10tetgenmesh7findorgEPNS_4faceEPd
                0x0000000000000000        0x0 /usr/lib/gcc/x86_64-linux-gnu/4.8/../../../x86_64-linux-gnu/crt1.o
 .rela.text._ZN10tetgenmesh8findedgeEPNS_7trifaceEPdS2_
                0x0000000000000000        0x0 /usr/lib/gcc/x86_64-linux-gnu/4.8/../../../x86_64-linux-gnu/crt1.o
 .rela.text._ZN10tetgenmesh8findedgeEPNS_4faceEPdS2_
                0x0000000000000000        0x0 /usr/lib/gcc/x86_64-linux-gnu/4.8/../../../x86_64-linux-gnu/crt1.o
 .rela.text._ZN10tetgenmesh8findfaceEPNS_7trifaceEPdS2_S2_
                0x0000000000000000        0x0 /usr/lib/gcc/x86_64-linux-gnu/4.8/../../../x86_64-linux-gnu/crt1.o
 .rela.text._ZN10tetgenmesh11getonextsegEPNS_4faceES1_
                0x0000000000000000        0x0 /usr/lib/gcc/x86_64-linux-gnu/4.8/../../../x86_64-linux-gnu/crt1.o
 .rela.text._ZN10tetgenmesh12getseghasorgEPNS_4faceEPd
                0x0000000000000000        0x0 /usr/lib/gcc/x86_64-linux-gnu/4.8/../../../x86_64-linux-gnu/crt1.o
 .rela.text._ZN10tetgenmesh15getsubsegfarorgEPNS_4faceE
                0x0000000000000000        0x0 /usr/lib/gcc/x86_64-linux-gnu/4.8/../../../x86_64-linux-gnu/crt1.o
 .rela.text._ZN10tetgenmesh16getsubsegfardestEPNS_4faceE
                0x0000000000000000        0x0 /usr/lib/gcc/x86_64-linux-gnu/4.8/../../../x86_64-linux-gnu/crt1.o
 .rela.text._ZN10tetgenmesh8printtetEPNS_7trifaceE
                0x0000000000000000        0x0 /usr/lib/gcc/x86_64-linux-gnu/4.8/../../../x86_64-linux-gnu/crt1.o
 .rela.text._ZN10tetgenmesh7printshEPNS_4faceE
                0x0000000000000000        0x0 /usr/lib/gcc/x86_64-linux-gnu/4.8/../../../x86_64-linux-gnu/crt1.o
 .rela.text._ZN10tetgenmesh16makepoint2tetmapEv
                0x0000000000000000        0x0 /usr/lib/gcc/x86_64-linux-gnu/4.8/../../../x86_64-linux-gnu/crt1.o
 .rela.text._ZN10tetgenmesh18makeindex2pointmapERPPd
                0x0000000000000000        0x0 /usr/lib/gcc/x86_64-linux-gnu/4.8/../../../x86_64-linux-gnu/crt1.o
 .rela.text._ZN10tetgenmesh14makesegmentmapERPiRPPPPd
                0x0000000000000000        0x0 /usr/lib/gcc/x86_64-linux-gnu/4.8/../../../x86_64-linux-gnu/crt1.o
 .rela.text._ZN10tetgenmesh14makesubfacemapERPiRPPPPd
                0x0000000000000000        0x0 /usr/lib/gcc/x86_64-linux-gnu/4.8/../../../x86_64-linux-gnu/crt1.o
 .rela.text._ZN10tetgenmesh18maketetrahedronmapERPiRPPPPd
                0x0000000000000000        0x0 /usr/lib/gcc/x86_64-linux-gnu/4.8/../../../x86_64-linux-gnu/crt1.o
 .rela.text._ZN10tetgenmesh19edge_edge_cop_interEPdS0_S0_S0_S0_
                0x0000000000000000        0x0 /usr/lib/gcc/x86_64-linux-gnu/4.8/../../../x86_64-linux-gnu/crt1.o
 .rela.text._ZN10tetgenmesh18tri_vert_cop_interEPdS0_S0_S0_S0_
                0x0000000000000000        0x0 /usr/lib/gcc/x86_64-linux-gnu/4.8/../../../x86_64-linux-gnu/crt1.o
 .rela.text._ZN10tetgenmesh18tri_edge_cop_interEPdS0_S0_S0_S0_S0_
                0x0000000000000000        0x0 /usr/lib/gcc/x86_64-linux-gnu/4.8/../../../x86_64-linux-gnu/crt1.o
 .rela.text._ZN10tetgenmesh19tri_edge_inter_tailEPdS0_S0_S0_S0_dd
                0x0000000000000000        0x0 /usr/lib/gcc/x86_64-linux-gnu/4.8/../../../x86_64-linux-gnu/crt1.o
 .rela.text._ZN10tetgenmesh13tri_tri_interEPdS0_S0_S0_S0_S0_
                0x0000000000000000        0x0 /usr/lib/gcc/x86_64-linux-gnu/4.8/../../../x86_64-linux-gnu/crt1.o
 .rela.text._ZN10tetgenmesh11iscollinearEPdS0_S0_d
                0x0000000000000000        0x0 /usr/lib/gcc/x86_64-linux-gnu/4.8/../../../x86_64-linux-gnu/crt1.o
 .rela.text._ZN10tetgenmesh10iscoplanarEPdS0_S0_S0_dd
                0x0000000000000000        0x0 /usr/lib/gcc/x86_64-linux-gnu/4.8/../../../x86_64-linux-gnu/crt1.o
 .rela.text._ZN10tetgenmesh11iscosphericEPdS0_S0_S0_S0_dd
                0x0000000000000000        0x0 /usr/lib/gcc/x86_64-linux-gnu/4.8/../../../x86_64-linux-gnu/crt1.o
 .rela.text._ZN10tetgenmesh8distanceEPdS0_
                0x0000000000000000        0x0 /usr/lib/gcc/x86_64-linux-gnu/4.8/../../../x86_64-linux-gnu/crt1.o
 .rela.text._ZN10tetgenmesh13shortdistanceEPdS0_S0_
                0x0000000000000000        0x0 /usr/lib/gcc/x86_64-linux-gnu/4.8/../../../x86_64-linux-gnu/crt1.o
 .rela.text._ZN10tetgenmesh13shortdistanceEPdS0_S0_S0_
                0x0000000000000000        0x0 /usr/lib/gcc/x86_64-linux-gnu/4.8/../../../x86_64-linux-gnu/crt1.o
 .rela.text._ZN10tetgenmesh13interiorangleEPdS0_S0_S0_
                0x0000000000000000        0x0 /usr/lib/gcc/x86_64-linux-gnu/4.8/../../../x86_64-linux-gnu/crt1.o
 .rela.text._ZN10tetgenmesh11projpt2edgeEPdS0_S0_S0_
                0x0000000000000000        0x0 /usr/lib/gcc/x86_64-linux-gnu/4.8/../../../x86_64-linux-gnu/crt1.o
 .rela.text._ZN10tetgenmesh11projpt2faceEPdS0_S0_S0_S0_
                0x0000000000000000        0x0 /usr/lib/gcc/x86_64-linux-gnu/4.8/../../../x86_64-linux-gnu/crt1.o
 .rela.text._ZN10tetgenmesh10facenormalEPdS0_S0_S0_S0_
                0x0000000000000000        0x0 /usr/lib/gcc/x86_64-linux-gnu/4.8/../../../x86_64-linux-gnu/crt1.o
 .rela.text._ZN10tetgenmesh15edgeorthonormalEPdS0_S0_S0_
                0x0000000000000000        0x0 /usr/lib/gcc/x86_64-linux-gnu/4.8/../../../x86_64-linux-gnu/crt1.o
 .rela.text._ZN10tetgenmesh12facedihedralEPdS0_S0_S0_
                0x0000000000000000        0x0 /usr/lib/gcc/x86_64-linux-gnu/4.8/../../../x86_64-linux-gnu/crt1.o
 .rela.text._ZN10tetgenmesh14tetalldihedralEPdS0_S0_S0_S0_S0_S0_
                0x0000000000000000        0x0 /usr/lib/gcc/x86_64-linux-gnu/4.8/../../../x86_64-linux-gnu/crt1.o
 .rela.text._ZN10tetgenmesh12circumsphereEPdS0_S0_S0_S0_S0_
                0x0000000000000000        0x0 /usr/lib/gcc/x86_64-linux-gnu/4.8/../../../x86_64-linux-gnu/crt1.o
 .rela.text._ZN10tetgenmesh15inscribedsphereEPdS0_S0_S0_S0_S0_
                0x0000000000000000        0x0 /usr/lib/gcc/x86_64-linux-gnu/4.8/../../../x86_64-linux-gnu/crt1.o
 .rela.text._ZN10tetgenmesh11rotatepointEPddS0_S0_
                0x0000000000000000        0x0 /usr/lib/gcc/x86_64-linux-gnu/4.8/../../../x86_64-linux-gnu/crt1.o
 .rela.text._ZN10tetgenmesh13spherelineintEPdS0_S0_dS0_
                0x0000000000000000        0x0 /usr/lib/gcc/x86_64-linux-gnu/4.8/../../../x86_64-linux-gnu/crt1.o
 .rela.text._ZN10tetgenmesh9dummyinitEii
                0x0000000000000000        0x0 /usr/lib/gcc/x86_64-linux-gnu/4.8/../../../x86_64-linux-gnu/crt1.o
 .rela.text._ZN10tetgenmesh15initializepoolsEv
                0x0000000000000000        0x0 /usr/lib/gcc/x86_64-linux-gnu/4.8/../../../x86_64-linux-gnu/crt1.o
 .rela.text._ZN10tetgenmesh12pointdeallocEPd
                0x0000000000000000        0x0 /usr/lib/gcc/x86_64-linux-gnu/4.8/../../../x86_64-linux-gnu/crt1.o
 .rela.text._ZN10tetgenmesh13pointtraverseEv
                0x0000000000000000        0x0 /usr/lib/gcc/x86_64-linux-gnu/4.8/../../../x86_64-linux-gnu/crt1.o
 .rela.text._ZN10tetgenmesh15maketetrahedronEPNS_7trifaceE
                0x0000000000000000        0x0 /usr/lib/gcc/x86_64-linux-gnu/4.8/../../../x86_64-linux-gnu/crt1.o
 .rela.text._ZN10tetgenmesh13makeshellfaceEPNS_10memorypoolEPNS_4faceE
                0x0000000000000000        0x0 /usr/lib/gcc/x86_64-linux-gnu/4.8/../../../x86_64-linux-gnu/crt1.o
 .rela.text._ZN10tetgenmesh9makepointEPPd
                0x0000000000000000        0x0 /usr/lib/gcc/x86_64-linux-gnu/4.8/../../../x86_64-linux-gnu/crt1.o
 .rela.text._ZN10tetgenmesh13preciselocateEPdPNS_7trifaceEl
                0x0000000000000000        0x0 /usr/lib/gcc/x86_64-linux-gnu/4.8/../../../x86_64-linux-gnu/crt1.o
 .rela.text._ZN10tetgenmesh6locateEPdPNS_7trifaceE
                0x0000000000000000        0x0 /usr/lib/gcc/x86_64-linux-gnu/4.8/../../../x86_64-linux-gnu/crt1.o
 .rela.text._ZN10tetgenmesh12adjustlocateEPdPNS_7trifaceENS_12locateresultEd
                0x0000000000000000        0x0 /usr/lib/gcc/x86_64-linux-gnu/4.8/../../../x86_64-linux-gnu/crt1.o
 .rela.text._ZN10tetgenmesh9locatesubEPdPNS_4faceEid
                0x0000000000000000        0x0 /usr/lib/gcc/x86_64-linux-gnu/4.8/../../../x86_64-linux-gnu/crt1.o
 .rela.text._ZN10tetgenmesh15adjustlocatesubEPdPNS_4faceENS_12locateresultEd
                0x0000000000000000        0x0 /usr/lib/gcc/x86_64-linux-gnu/4.8/../../../x86_64-linux-gnu/crt1.o
 .rela.text._ZN10tetgenmesh9locatesegEPdPNS_4faceE
                0x0000000000000000        0x0 /usr/lib/gcc/x86_64-linux-gnu/4.8/../../../x86_64-linux-gnu/crt1.o
 .rela.text._ZN10tetgenmesh15adjustlocatesegEPdPNS_4faceENS_12locateresultEd
                0x0000000000000000        0x0 /usr/lib/gcc/x86_64-linux-gnu/4.8/../../../x86_64-linux-gnu/crt1.o
 .rela.text._ZN10tetgenmesh14categorizefaceERNS_7trifaceE
                0x0000000000000000        0x0 /usr/lib/gcc/x86_64-linux-gnu/4.8/../../../x86_64-linux-gnu/crt1.o
 .rela.text._ZN10tetgenmesh15enqueueflipfaceERNS_7trifaceEPNS_5queueE
                0x0000000000000000        0x0 /usr/lib/gcc/x86_64-linux-gnu/4.8/../../../x86_64-linux-gnu/crt1.o
 .rela.text._ZN10tetgenmesh15enqueueflipedgeERNS_4faceEPNS_5queueE
                0x0000000000000000        0x0 /usr/lib/gcc/x86_64-linux-gnu/4.8/../../../x86_64-linux-gnu/crt1.o
 .rela.text._ZN10tetgenmesh6flip23EPNS_7trifaceEPNS_5queueE
                0x0000000000000000        0x0 /usr/lib/gcc/x86_64-linux-gnu/4.8/../../../x86_64-linux-gnu/crt1.o
 .rela.text._ZN10tetgenmesh6flip32EPNS_7trifaceEPNS_5queueE
                0x0000000000000000        0x0 /usr/lib/gcc/x86_64-linux-gnu/4.8/../../../x86_64-linux-gnu/crt1.o
 .rela.text._ZN10tetgenmesh6flip22EPNS_7trifaceEPNS_5queueE
                0x0000000000000000        0x0 /usr/lib/gcc/x86_64-linux-gnu/4.8/../../../x86_64-linux-gnu/crt1.o
 .rela.text._ZN10tetgenmesh9flip22subEPNS_4faceEPNS_5queueE
                0x0000000000000000        0x0 /usr/lib/gcc/x86_64-linux-gnu/4.8/../../../x86_64-linux-gnu/crt1.o
 .rela.text._ZN10tetgenmesh4flipEPNS_5queueEPPNS_7badfaceE
                0x0000000000000000        0x0 /usr/lib/gcc/x86_64-linux-gnu/4.8/../../../x86_64-linux-gnu/crt1.o
 .rela.text._ZN10tetgenmesh7flipsubEPNS_5queueE
                0x0000000000000000        0x0 /usr/lib/gcc/x86_64-linux-gnu/4.8/../../../x86_64-linux-gnu/crt1.o
 .rela.text._ZN10tetgenmesh16splittetrahedronEPdPNS_7trifaceEPNS_5queueE
                0x0000000000000000        0x0 /usr/lib/gcc/x86_64-linux-gnu/4.8/../../../x86_64-linux-gnu/crt1.o
 .rela.text._ZN10tetgenmesh18unsplittetrahedronEPNS_7trifaceE
                0x0000000000000000        0x0 /usr/lib/gcc/x86_64-linux-gnu/4.8/../../../x86_64-linux-gnu/crt1.o
 .rela.text._ZN10tetgenmesh12splittetfaceEPdPNS_7trifaceEPNS_5queueE
                0x0000000000000000        0x0 /usr/lib/gcc/x86_64-linux-gnu/4.8/../../../x86_64-linux-gnu/crt1.o
 .rela.text._ZN10tetgenmesh14unsplittetfaceEPNS_7trifaceE
                0x0000000000000000        0x0 /usr/lib/gcc/x86_64-linux-gnu/4.8/../../../x86_64-linux-gnu/crt1.o
 .rela.text._ZN10tetgenmesh12splitsubfaceEPdPNS_4faceEPNS_5queueE
                0x0000000000000000        0x0 /usr/lib/gcc/x86_64-linux-gnu/4.8/../../../x86_64-linux-gnu/crt1.o
 .rela.text._ZN10tetgenmesh14unsplitsubfaceEPNS_4faceE
                0x0000000000000000        0x0 /usr/lib/gcc/x86_64-linux-gnu/4.8/../../../x86_64-linux-gnu/crt1.o
 .rela.text._ZN10tetgenmesh12splittetedgeEPdPNS_7trifaceEPNS_5queueE
                0x0000000000000000        0x0 /usr/lib/gcc/x86_64-linux-gnu/4.8/../../../x86_64-linux-gnu/crt1.o
 .rela.text._ZN10tetgenmesh14unsplittetedgeEPNS_7trifaceE
                0x0000000000000000        0x0 /usr/lib/gcc/x86_64-linux-gnu/4.8/../../../x86_64-linux-gnu/crt1.o
 .rela.text._ZN10tetgenmesh12splitsubedgeEPdPNS_4faceEPNS_5queueE
                0x0000000000000000        0x0 /usr/lib/gcc/x86_64-linux-gnu/4.8/../../../x86_64-linux-gnu/crt1.o
 .rela.text._ZN10tetgenmesh14unsplitsubedgeEPNS_4faceE
                0x0000000000000000        0x0 /usr/lib/gcc/x86_64-linux-gnu/4.8/../../../x86_64-linux-gnu/crt1.o
 .rela.text._ZN10tetgenmesh10insertsiteEPdPNS_7trifaceEbPNS_5queueE
                0x0000000000000000        0x0 /usr/lib/gcc/x86_64-linux-gnu/4.8/../../../x86_64-linux-gnu/crt1.o
 .rela.text._ZN10tetgenmesh8undositeENS_16insertsiteresultEPNS_7trifaceEPdS3_S3_S3_
                0x0000000000000000        0x0 /usr/lib/gcc/x86_64-linux-gnu/4.8/../../../x86_64-linux-gnu/crt1.o
 .rela.text._ZN10tetgenmesh18formbowatcavitysubEPdPNS_4faceEPNS_4listES4_
                0x0000000000000000        0x0 /usr/lib/gcc/x86_64-linux-gnu/4.8/../../../x86_64-linux-gnu/crt1.o
 .rela.text._ZN10tetgenmesh19formbowatcavityquadEPdPNS_4listES2_
                0x0000000000000000        0x0 /usr/lib/gcc/x86_64-linux-gnu/4.8/../../../x86_64-linux-gnu/crt1.o
 .rela.text._ZN10tetgenmesh22formbowatcavitysegquadEPdPNS_4listES2_
                0x0000000000000000        0x0 /usr/lib/gcc/x86_64-linux-gnu/4.8/../../../x86_64-linux-gnu/crt1.o
 .rela.text._ZN10tetgenmesh15formbowatcavityEPdPNS_4faceES2_PiS3_PPNS_4listES6_S6_S6_
                0x0000000000000000        0x0 /usr/lib/gcc/x86_64-linux-gnu/4.8/../../../x86_64-linux-gnu/crt1.o
 .rela.text._ZN10tetgenmesh18releasebowatcavityEPNS_4faceEiPPNS_4listES4_S4_S4_
                0x0000000000000000        0x0 /usr/lib/gcc/x86_64-linux-gnu/4.8/../../../x86_64-linux-gnu/crt1.o
 .rela.text._ZN10tetgenmesh23validatebowatcavityquadEPdPNS_4listEd
                0x0000000000000000        0x0 /usr/lib/gcc/x86_64-linux-gnu/4.8/../../../x86_64-linux-gnu/crt1.o
 .rela.text._ZN10tetgenmesh21updatebowatcavityquadEPNS_4listES1_
                0x0000000000000000        0x0 /usr/lib/gcc/x86_64-linux-gnu/4.8/../../../x86_64-linux-gnu/crt1.o
 .rela.text._ZN10tetgenmesh20updatebowatcavitysubEPNS_4listES1_Pi
                0x0000000000000000        0x0 /usr/lib/gcc/x86_64-linux-gnu/4.8/../../../x86_64-linux-gnu/crt1.o
 .rela.text._ZN10tetgenmesh15trimbowatcavityEPdPNS_4faceEiPPNS_4listES5_S5_S5_d
                0x0000000000000000        0x0 /usr/lib/gcc/x86_64-linux-gnu/4.8/../../../x86_64-linux-gnu/crt1.o
 .rela.text._ZN10tetgenmesh15bowatinsertsiteEPdPNS_4faceEiPPNS_4listES5_S5_S5_S4_PNS_5queueEbbb
                0x0000000000000000        0x0 /usr/lib/gcc/x86_64-linux-gnu/4.8/../../../x86_64-linux-gnu/crt1.o
 .rela.text._ZN10tetgenmesh18formstarpolyhedronEPdPNS_4listES2_b
                0x0000000000000000        0x0 /usr/lib/gcc/x86_64-linux-gnu/4.8/../../../x86_64-linux-gnu/crt1.o
 .rela.text._ZN10tetgenmesh10unifypointEPdPNS_7trifaceENS_12locateresultEd
                0x0000000000000000        0x0 /usr/lib/gcc/x86_64-linux-gnu/4.8/../../../x86_64-linux-gnu/crt1.o
 .rela.text._ZN10tetgenmesh13closeopenfaceEPNS_7trifaceEPNS_5queueE
                0x0000000000000000        0x0 /usr/lib/gcc/x86_64-linux-gnu/4.8/../../../x86_64-linux-gnu/crt1.o
 .rela.text._ZN10tetgenmesh14inserthullsiteEPdPNS_7trifaceEPNS_5queueE
                0x0000000000000000        0x0 /usr/lib/gcc/x86_64-linux-gnu/4.8/../../../x86_64-linux-gnu/crt1.o
 .rela.text._ZN10tetgenmesh16incrflipdelaunayEPNS_7trifaceEPPdlbbdPNS_5queueE
                0x0000000000000000        0x0 /usr/lib/gcc/x86_64-linux-gnu/4.8/../../../x86_64-linux-gnu/crt1.o
 .rela.text._ZN10tetgenmesh5queueD2Ev
                0x0000000000000000        0x0 /usr/lib/gcc/x86_64-linux-gnu/4.8/../../../x86_64-linux-gnu/crt1.o
 .rela.text._ZN10tetgenmesh17delaunizeverticesEv
                0x0000000000000000        0x0 /usr/lib/gcc/x86_64-linux-gnu/4.8/../../../x86_64-linux-gnu/crt1.o
 .rela.text._ZN10tetgenmesh15formstarpolygonEPdPNS_4listES2_
                0x0000000000000000        0x0 /usr/lib/gcc/x86_64-linux-gnu/4.8/../../../x86_64-linux-gnu/crt1.o
 .rela.text._ZN10tetgenmesh18getfacetabovepointEPNS_4faceE
                0x0000000000000000        0x0 /usr/lib/gcc/x86_64-linux-gnu/4.8/../../../x86_64-linux-gnu/crt1.o
 .rela.text._ZN10tetgenmesh14collectcavsubsEPdPNS_4listE
                0x0000000000000000        0x0 /usr/lib/gcc/x86_64-linux-gnu/4.8/../../../x86_64-linux-gnu/crt1.o
 .rela.text._ZN10tetgenmesh18collectvisiblesubsEiPdPNS_4faceEPNS_5queueE
                0x0000000000000000        0x0 /usr/lib/gcc/x86_64-linux-gnu/4.8/../../../x86_64-linux-gnu/crt1.o
 .rela.text._ZN10tetgenmesh19incrflipdelaunaysubEidPNS_4listEiPdPNS_5queueE
                0x0000000000000000        0x0 /usr/lib/gcc/x86_64-linux-gnu/4.8/../../../x86_64-linux-gnu/crt1.o
 .rela.text._ZN10tetgenmesh16finddirectionsubEPNS_4faceEPd
                0x0000000000000000        0x0 /usr/lib/gcc/x86_64-linux-gnu/4.8/../../../x86_64-linux-gnu/crt1.o
 .rela.text._ZN10tetgenmesh12insertsubsegEPNS_4faceE
                0x0000000000000000        0x0 /usr/lib/gcc/x86_64-linux-gnu/4.8/../../../x86_64-linux-gnu/crt1.o
 .rela.text._ZN10tetgenmesh15scoutsegmentsubEPNS_4faceEPd
                0x0000000000000000        0x0 /usr/lib/gcc/x86_64-linux-gnu/4.8/../../../x86_64-linux-gnu/crt1.o
 .rela.text._ZN10tetgenmesh17flipedgerecursiveEPNS_4faceEPNS_5queueE
                0x0000000000000000        0x0 /usr/lib/gcc/x86_64-linux-gnu/4.8/../../../x86_64-linux-gnu/crt1.o
 .rela.text._ZN10tetgenmesh15constrainededgeEPNS_4faceEPdPNS_5queueE
                0x0000000000000000        0x0 /usr/lib/gcc/x86_64-linux-gnu/4.8/../../../x86_64-linux-gnu/crt1.o
 .rela.text._ZN10tetgenmesh14recoversegmentEPdS0_PNS_5queueE
                0x0000000000000000        0x0 /usr/lib/gcc/x86_64-linux-gnu/4.8/../../../x86_64-linux-gnu/crt1.o
 .rela.text._ZN10tetgenmesh13infecthullsubEPNS_10memorypoolE
                0x0000000000000000        0x0 /usr/lib/gcc/x86_64-linux-gnu/4.8/../../../x86_64-linux-gnu/crt1.o
 .rela.text._ZN10tetgenmesh9plaguesubEPNS_10memorypoolE
                0x0000000000000000        0x0 /usr/lib/gcc/x86_64-linux-gnu/4.8/../../../x86_64-linux-gnu/crt1.o
 .rela.text._ZN10tetgenmesh13carveholessubEiPdPNS_10memorypoolE
                0x0000000000000000        0x0 /usr/lib/gcc/x86_64-linux-gnu/4.8/../../../x86_64-linux-gnu/crt1.o
 .rela.text._ZN10tetgenmesh11triangulateEidPNS_4listES1_iPdPNS_10memorypoolEPNS_5queueE
                0x0000000000000000        0x0 /usr/lib/gcc/x86_64-linux-gnu/4.8/../../../x86_64-linux-gnu/crt1.o
 .rela.text._ZN10tetgenmesh15retrievenewsubsEPNS_4listEb
                0x0000000000000000        0x0 /usr/lib/gcc/x86_64-linux-gnu/4.8/../../../x86_64-linux-gnu/crt1.o
 .rela.text._ZN10tetgenmesh13unifysegmentsEv
                0x0000000000000000        0x0 /usr/lib/gcc/x86_64-linux-gnu/4.8/../../../x86_64-linux-gnu/crt1.o
 .rela.text._ZN10tetgenmesh11mergefacetsEPNS_5queueE
                0x0000000000000000        0x0 /usr/lib/gcc/x86_64-linux-gnu/4.8/../../../x86_64-linux-gnu/crt1.o
 .rela.text._ZN10tetgenmesh11meshsurfaceEv
                0x0000000000000000        0x0 /usr/lib/gcc/x86_64-linux-gnu/4.8/../../../x86_64-linux-gnu/crt1.o
 .rela.text._ZN10tetgenmesh13interecursiveEPPPPdiiddddddPi
                0x0000000000000000        0x0 /usr/lib/gcc/x86_64-linux-gnu/4.8/../../../x86_64-linux-gnu/crt1.o
 .rela.text._ZN10tetgenmesh16detectinterfacesEv
                0x0000000000000000        0x0 /usr/lib/gcc/x86_64-linux-gnu/4.8/../../../x86_64-linux-gnu/crt1.o
 .rela.text._ZN10tetgenmesh7pbcdataC2Ev
                0x0000000000000000        0x0 /usr/lib/gcc/x86_64-linux-gnu/4.8/../../../x86_64-linux-gnu/crt1.o
 .rela.text._ZN10tetgenmesh22createsubpbcgrouptableEv
                0x0000000000000000        0x0 /usr/lib/gcc/x86_64-linux-gnu/4.8/../../../x86_64-linux-gnu/crt1.o
 .rela.text._ZN10tetgenmesh14getsubpbcgroupEPNS_4faceEPPNS_7pbcdataEPiS5_
                0x0000000000000000        0x0 /usr/lib/gcc/x86_64-linux-gnu/4.8/../../../x86_64-linux-gnu/crt1.o
 .rela.text._ZN10tetgenmesh17getsubpbcsympointEPdPNS_4faceES0_S2_
                0x0000000000000000        0x0 /usr/lib/gcc/x86_64-linux-gnu/4.8/../../../x86_64-linux-gnu/crt1.o
 .rela.text._ZN10tetgenmesh22createsegpbcgrouptableEv
                0x0000000000000000        0x0 /usr/lib/gcc/x86_64-linux-gnu/4.8/../../../x86_64-linux-gnu/crt1.o
 .rela.text._ZN10tetgenmesh17getsegpbcsympointEPdPNS_4faceES0_S2_i
                0x0000000000000000        0x0 /usr/lib/gcc/x86_64-linux-gnu/4.8/../../../x86_64-linux-gnu/crt1.o
 .rela.text._ZN10tetgenmesh13randgeneratorEd
                0x0000000000000000        0x0 /usr/lib/gcc/x86_64-linux-gnu/4.8/../../../x86_64-linux-gnu/crt1.o
 .rela.text._ZN10tetgenmesh14checksub4cocirEPNS_4faceEdbb
                0x0000000000000000        0x0 /usr/lib/gcc/x86_64-linux-gnu/4.8/../../../x86_64-linux-gnu/crt1.o
 .rela.text._ZN10tetgenmesh13tallcocirsubsEdb
                0x0000000000000000        0x0 /usr/lib/gcc/x86_64-linux-gnu/4.8/../../../x86_64-linux-gnu/crt1.o
 .rela.text._ZN10tetgenmesh16tallencsegsfsubsEPdPNS_4listE
                0x0000000000000000        0x0 /usr/lib/gcc/x86_64-linux-gnu/4.8/../../../x86_64-linux-gnu/crt1.o
 .rela.text._ZN10tetgenmesh16collectflipedgesEPdPNS_4faceEPNS_5queueE
                0x0000000000000000        0x0 /usr/lib/gcc/x86_64-linux-gnu/4.8/../../../x86_64-linux-gnu/crt1.o
 .rela.text._ZN10tetgenmesh20perturbrepairencsegsEPNS_5queueE
                0x0000000000000000        0x0 /usr/lib/gcc/x86_64-linux-gnu/4.8/../../../x86_64-linux-gnu/crt1.o
 .rela.text._ZN10tetgenmesh20perturbrepairencsubsEPNS_4listEPNS_5queueE
                0x0000000000000000        0x0 /usr/lib/gcc/x86_64-linux-gnu/4.8/../../../x86_64-linux-gnu/crt1.o
 .rela.text._ZN10tetgenmesh19incrperturbverticesEd
                0x0000000000000000        0x0 /usr/lib/gcc/x86_64-linux-gnu/4.8/../../../x86_64-linux-gnu/crt1.o
 .rela.text._ZN10tetgenmesh17markacuteverticesEd
                0x0000000000000000        0x0 /usr/lib/gcc/x86_64-linux-gnu/4.8/../../../x86_64-linux-gnu/crt1.o
 .rela.text._ZN10tetgenmesh13finddirectionEPNS_7trifaceEPdl
                0x0000000000000000        0x0 /usr/lib/gcc/x86_64-linux-gnu/4.8/../../../x86_64-linux-gnu/crt1.o
 .rela.text._ZN10tetgenmesh12getsearchtetEPdS0_PNS_7trifaceEPS0_
                0x0000000000000000        0x0 /usr/lib/gcc/x86_64-linux-gnu/4.8/../../../x86_64-linux-gnu/crt1.o
 .rela.text._ZN10tetgenmesh13scoutrefpointEPNS_7trifaceEPd
                0x0000000000000000        0x0 /usr/lib/gcc/x86_64-linux-gnu/4.8/../../../x86_64-linux-gnu/crt1.o
 .rela.text._ZN10tetgenmesh16getsegmentoriginEPNS_4faceE
                0x0000000000000000        0x0 /usr/lib/gcc/x86_64-linux-gnu/4.8/../../../x86_64-linux-gnu/crt1.o
 .rela.text._ZN10tetgenmesh13getsplitpointEPNS_4faceEPd
                0x0000000000000000        0x0 /usr/lib/gcc/x86_64-linux-gnu/4.8/../../../x86_64-linux-gnu/crt1.o
 .rela.text._ZN10tetgenmesh17delaunizesegmentsEv
                0x0000000000000000        0x0 /usr/lib/gcc/x86_64-linux-gnu/4.8/../../../x86_64-linux-gnu/crt1.o
 .rela.text._ZN10tetgenmesh13insertsubfaceEPNS_4faceEPNS_7trifaceE
                0x0000000000000000        0x0 /usr/lib/gcc/x86_64-linux-gnu/4.8/../../../x86_64-linux-gnu/crt1.o
 .rela.text._ZN10tetgenmesh10tritritestEPNS_7trifaceEPdS2_S2_
                0x0000000000000000        0x0 /usr/lib/gcc/x86_64-linux-gnu/4.8/../../../x86_64-linux-gnu/crt1.o
 .rela.text._ZN10tetgenmesh16initializecavityEPNS_4listES1_S1_
                0x0000000000000000        0x0 /usr/lib/gcc/x86_64-linux-gnu/4.8/../../../x86_64-linux-gnu/crt1.o
 .rela.text._ZN10tetgenmesh15retrievenewtetsEPNS_4listE
                0x0000000000000000        0x0 /usr/lib/gcc/x86_64-linux-gnu/4.8/../../../x86_64-linux-gnu/crt1.o
 .rela.text._ZN10tetgenmesh20delaunizecavverticesEPNS_7trifaceEPNS_4listES3_S3_PNS_5queueE
                0x0000000000000000        0x0 /usr/lib/gcc/x86_64-linux-gnu/4.8/../../../x86_64-linux-gnu/crt1.o
 .rela.text._ZN10tetgenmesh16insertauxsubfaceEPNS_7trifaceES1_
                0x0000000000000000        0x0 /usr/lib/gcc/x86_64-linux-gnu/4.8/../../../x86_64-linux-gnu/crt1.o
 .rela.text._ZN10tetgenmesh10scoutfrontEPNS_7trifaceES1_PNS_4listE
                0x0000000000000000        0x0 /usr/lib/gcc/x86_64-linux-gnu/4.8/../../../x86_64-linux-gnu/crt1.o
 .rela.text._ZN10tetgenmesh10gluefrontsEPNS_7trifaceES1_
                0x0000000000000000        0x0 /usr/lib/gcc/x86_64-linux-gnu/4.8/../../../x86_64-linux-gnu/crt1.o
 .rela.text._ZN10tetgenmesh14identifyfrontsEPNS_4listES1_S1_
                0x0000000000000000        0x0 /usr/lib/gcc/x86_64-linux-gnu/4.8/../../../x86_64-linux-gnu/crt1.o
 .rela.text._ZN10tetgenmesh17detachauxsubfacesEPNS_4listE
                0x0000000000000000        0x0 /usr/lib/gcc/x86_64-linux-gnu/4.8/../../../x86_64-linux-gnu/crt1.o
 .rela.text._ZN10tetgenmesh12expandcavityEPNS_4listES1_S1_S1_PNS_5queueES3_
                0x0000000000000000        0x0 /usr/lib/gcc/x86_64-linux-gnu/4.8/../../../x86_64-linux-gnu/crt1.o
 .rela.text._ZN10tetgenmesh11carvecavityEPNS_4listES1_PNS_5queueE
                0x0000000000000000        0x0 /usr/lib/gcc/x86_64-linux-gnu/4.8/../../../x86_64-linux-gnu/crt1.o
 .rela.text._ZN10tetgenmesh15delaunizecavityEPNS_4listES1_S1_S1_S1_S1_S1_S1_PNS_5queueES3_
                0x0000000000000000        0x0 /usr/lib/gcc/x86_64-linux-gnu/4.8/../../../x86_64-linux-gnu/crt1.o
 .rela.text._ZN10tetgenmesh17formmissingregionEPNS_4faceEPNS_4listES3_Pi
                0x0000000000000000        0x0 /usr/lib/gcc/x86_64-linux-gnu/4.8/../../../x86_64-linux-gnu/crt1.o
 .rela.text._ZN10tetgenmesh17rearrangesubfacesEPNS_4listES1_S1_Pi
                0x0000000000000000        0x0 /usr/lib/gcc/x86_64-linux-gnu/4.8/../../../x86_64-linux-gnu/crt1.o
 .rela.text._ZN10tetgenmesh17scoutcrossingedgeEPNS_4listES1_S1_Pi
                0x0000000000000000        0x0 /usr/lib/gcc/x86_64-linux-gnu/4.8/../../../x86_64-linux-gnu/crt1.o
 .rela.text._ZN10tetgenmesh10formcavityEPNS_4listES1_S1_S1_S1_S1_S1_S1_S1_S1_PNS_5queueEPi
                0x0000000000000000        0x0 /usr/lib/gcc/x86_64-linux-gnu/4.8/../../../x86_64-linux-gnu/crt1.o
 .rela.text._ZN10tetgenmesh17insertallsubfacesEPNS_5queueE
                0x0000000000000000        0x0 /usr/lib/gcc/x86_64-linux-gnu/4.8/../../../x86_64-linux-gnu/crt1.o
 .rela.text._ZN10tetgenmesh17constrainedfacetsEv
                0x0000000000000000        0x0 /usr/lib/gcc/x86_64-linux-gnu/4.8/../../../x86_64-linux-gnu/crt1.o
 .rela.text._ZN10tetgenmesh10infecthullEPNS_10memorypoolE
                0x0000000000000000        0x0 /usr/lib/gcc/x86_64-linux-gnu/4.8/../../../x86_64-linux-gnu/crt1.o
 .rela.text._ZN10tetgenmesh6plagueEPNS_10memorypoolE
                0x0000000000000000        0x0 /usr/lib/gcc/x86_64-linux-gnu/4.8/../../../x86_64-linux-gnu/crt1.o
 .rela.text._ZN10tetgenmesh12regionplagueEPNS_10memorypoolEdd
                0x0000000000000000        0x0 /usr/lib/gcc/x86_64-linux-gnu/4.8/../../../x86_64-linux-gnu/crt1.o
 .rela.text._ZN10tetgenmesh14removeholetetsEPNS_10memorypoolE
                0x0000000000000000        0x0 /usr/lib/gcc/x86_64-linux-gnu/4.8/../../../x86_64-linux-gnu/crt1.o
 .rela.text._ZN10tetgenmesh19assignregionattribsEv
                0x0000000000000000        0x0 /usr/lib/gcc/x86_64-linux-gnu/4.8/../../../x86_64-linux-gnu/crt1.o
 .rela.text._ZN10tetgenmesh10carveholesEv
                0x0000000000000000        0x0 /usr/lib/gcc/x86_64-linux-gnu/4.8/../../../x86_64-linux-gnu/crt1.o
 .rela.text._ZN10tetgenmesh18replacepolygonsubsEPNS_4listES1_
                0x0000000000000000        0x0 /usr/lib/gcc/x86_64-linux-gnu/4.8/../../../x86_64-linux-gnu/crt1.o
 .rela.text._ZN10tetgenmesh13orientnewsubsEPNS_4listEPNS_4faceEPd
                0x0000000000000000        0x0 /usr/lib/gcc/x86_64-linux-gnu/4.8/../../../x86_64-linux-gnu/crt1.o
 .rela.text._ZN10tetgenmesh15constrainedflipEPNS_7trifaceES1_PNS_5queueE
                0x0000000000000000        0x0 /usr/lib/gcc/x86_64-linux-gnu/4.8/../../../x86_64-linux-gnu/crt1.o
 .rela.text._ZN10tetgenmesh12recoverfrontEPNS_7trifaceEPNS_4listEPNS_5queueE
                0x0000000000000000        0x0 /usr/lib/gcc/x86_64-linux-gnu/4.8/../../../x86_64-linux-gnu/crt1.o
 .rela.text._ZN10tetgenmesh11repairflipsEPNS_5queueE
                0x0000000000000000        0x0 /usr/lib/gcc/x86_64-linux-gnu/4.8/../../../x86_64-linux-gnu/crt1.o
 .rela.text._ZN10tetgenmesh17constrainedcavityEPNS_7trifaceEPNS_4listES3_S3_S3_S3_S3_PNS_5queueE
                0x0000000000000000        0x0 /usr/lib/gcc/x86_64-linux-gnu/4.8/../../../x86_64-linux-gnu/crt1.o
 .rela.text._ZN10tetgenmesh19expandsteinercavityEPddPNS_4listES2_
                0x0000000000000000        0x0 /usr/lib/gcc/x86_64-linux-gnu/4.8/../../../x86_64-linux-gnu/crt1.o
 .rela.text._ZN10tetgenmesh17findrelocatepointEPdS0_S0_PNS_4listES2_
                0x0000000000000000        0x0 /usr/lib/gcc/x86_64-linux-gnu/4.8/../../../x86_64-linux-gnu/crt1.o
 .rela.text._ZN10tetgenmesh13relocatepointEPdPNS_7trifaceEPNS_4listES4_PNS_5queueE
                0x0000000000000000        0x0 /usr/lib/gcc/x86_64-linux-gnu/4.8/../../../x86_64-linux-gnu/crt1.o
 .rela.text._ZN10tetgenmesh16findcollapseedgeEPdPS0_PNS_4listES3_
                0x0000000000000000        0x0 /usr/lib/gcc/x86_64-linux-gnu/4.8/../../../x86_64-linux-gnu/crt1.o
 .rela.text._ZN10tetgenmesh12collapseedgeEPdS0_PNS_4listES2_
                0x0000000000000000        0x0 /usr/lib/gcc/x86_64-linux-gnu/4.8/../../../x86_64-linux-gnu/crt1.o
 .rela.text._ZN10tetgenmesh15deallocfaketetsEPNS_4listE
                0x0000000000000000        0x0 /usr/lib/gcc/x86_64-linux-gnu/4.8/../../../x86_64-linux-gnu/crt1.o
 .rela.text._ZN10tetgenmesh17restorepolyhedronEPNS_4listE
                0x0000000000000000        0x0 /usr/lib/gcc/x86_64-linux-gnu/4.8/../../../x86_64-linux-gnu/crt1.o
 .rela.text._ZN10tetgenmesh18suppressfacetpointEPNS_4faceEPNS_4listES3_S3_S3_PNS_10memorypoolEPNS_5queueE
                0x0000000000000000        0x0 /usr/lib/gcc/x86_64-linux-gnu/4.8/../../../x86_64-linux-gnu/crt1.o
 .rela.text._ZN10tetgenmesh16suppresssegpointEPNS_4faceEPNS_4listES3_S3_S3_S3_S3_PNS_10memorypoolEPNS_5queueE
                0x0000000000000000        0x0 /usr/lib/gcc/x86_64-linux-gnu/4.8/../../../x86_64-linux-gnu/crt1.o
 .rela.text._ZN10tetgenmesh16suppressvolpointEPdPNS_4listES2_S2_PNS_5queueE
                0x0000000000000000        0x0 /usr/lib/gcc/x86_64-linux-gnu/4.8/../../../x86_64-linux-gnu/crt1.o
 .rela.text._ZN10tetgenmesh17collapseedgepointEPdPNS_4listES2_S2_
                0x0000000000000000        0x0 /usr/lib/gcc/x86_64-linux-gnu/4.8/../../../x86_64-linux-gnu/crt1.o
 .rela.text._ZN10tetgenmesh14removesteinersEv
                0x0000000000000000        0x0 /usr/lib/gcc/x86_64-linux-gnu/4.8/../../../x86_64-linux-gnu/crt1.o
 .rela.text._ZN10tetgenmesh15reconstructmeshEv
                0x0000000000000000        0x0 /usr/lib/gcc/x86_64-linux-gnu/4.8/../../../x86_64-linux-gnu/crt1.o
 .rela.text._ZN10tetgenmesh9intettestEPdPNS_7trifaceEd
                0x0000000000000000        0x0 /usr/lib/gcc/x86_64-linux-gnu/4.8/../../../x86_64-linux-gnu/crt1.o
 .rela.text._ZN10tetgenmesh15insertaddpointsEv
                0x0000000000000000        0x0 /usr/lib/gcc/x86_64-linux-gnu/4.8/../../../x86_64-linux-gnu/crt1.o
 .rela.text._ZN10tetgenmesh20interpolatepointsizeEPdPNS_7trifaceEPl
                0x0000000000000000        0x0 /usr/lib/gcc/x86_64-linux-gnu/4.8/../../../x86_64-linux-gnu/crt1.o
 .rela.text._ZN10tetgenmesh20searchpointrecursiveEPNS_7trifaceEPl
                0x0000000000000000        0x0 /usr/lib/gcc/x86_64-linux-gnu/4.8/../../../x86_64-linux-gnu/crt1.o
 .rela.text._ZN10tetgenmesh18interpolatesizemapEv
                0x0000000000000000        0x0 /usr/lib/gcc/x86_64-linux-gnu/4.8/../../../x86_64-linux-gnu/crt1.o
 .rela.text._ZN10tetgenmesh21calclocalfeaturesizesEv
                0x0000000000000000        0x0 /usr/lib/gcc/x86_64-linux-gnu/4.8/../../../x86_64-linux-gnu/crt1.o
 .rela.text._ZN10tetgenmesh16marksharpsubsegsEd
                0x0000000000000000        0x0 /usr/lib/gcc/x86_64-linux-gnu/4.8/../../../x86_64-linux-gnu/crt1.o
 .rela.text._ZN10tetgenmesh18markskinnysubfacesEd
                0x0000000000000000        0x0 /usr/lib/gcc/x86_64-linux-gnu/4.8/../../../x86_64-linux-gnu/crt1.o
 .rela.text._ZN10tetgenmesh13enqueuebadtetEPNS_7trifaceEdPd
                0x0000000000000000        0x0 /usr/lib/gcc/x86_64-linux-gnu/4.8/../../../x86_64-linux-gnu/crt1.o
 .rela.text._ZN10tetgenmesh13enqueueencsubEPNS_4faceEPdiS2_
                0x0000000000000000        0x0 /usr/lib/gcc/x86_64-linux-gnu/4.8/../../../x86_64-linux-gnu/crt1.o
 .rela.text._ZN10tetgenmesh17checkseg4encroachEPNS_4faceEPdPS2_b
                0x0000000000000000        0x0 /usr/lib/gcc/x86_64-linux-gnu/4.8/../../../x86_64-linux-gnu/crt1.o
 .rela.text._ZN10tetgenmesh17checksub4encroachEPNS_4faceEPdb
                0x0000000000000000        0x0 /usr/lib/gcc/x86_64-linux-gnu/4.8/../../../x86_64-linux-gnu/crt1.o
 .rela.text._ZN10tetgenmesh16checkseg4badqualEPNS_4faceEb
                0x0000000000000000        0x0 /usr/lib/gcc/x86_64-linux-gnu/4.8/../../../x86_64-linux-gnu/crt1.o
 .rela.text._ZN10tetgenmesh16checksub4badqualEPNS_4faceEb
                0x0000000000000000        0x0 /usr/lib/gcc/x86_64-linux-gnu/4.8/../../../x86_64-linux-gnu/crt1.o
 .rela.text._ZN10tetgenmesh16checktet4badqualEPNS_7trifaceEb
                0x0000000000000000        0x0 /usr/lib/gcc/x86_64-linux-gnu/4.8/../../../x86_64-linux-gnu/crt1.o
 .rela.text._ZN10tetgenmesh11acceptsegptEPdS0_PNS_4faceE
                0x0000000000000000        0x0 /usr/lib/gcc/x86_64-linux-gnu/4.8/../../../x86_64-linux-gnu/crt1.o
 .rela.text._ZN10tetgenmesh11acceptfacptEPdPNS_4listES2_
                0x0000000000000000        0x0 /usr/lib/gcc/x86_64-linux-gnu/4.8/../../../x86_64-linux-gnu/crt1.o
 .rela.text._ZN10tetgenmesh11acceptvolptEPdPNS_4listES2_
                0x0000000000000000        0x0 /usr/lib/gcc/x86_64-linux-gnu/4.8/../../../x86_64-linux-gnu/crt1.o
 .rela.text._ZN10tetgenmesh13getsplitpointEPdS0_S0_S0_
                0x0000000000000000        0x0 /usr/lib/gcc/x86_64-linux-gnu/4.8/../../../x86_64-linux-gnu/crt1.o
 .rela.text._ZN10tetgenmesh18shepardinterpolateEPdPNS_4listE
                0x0000000000000000        0x0 /usr/lib/gcc/x86_64-linux-gnu/4.8/../../../x86_64-linux-gnu/crt1.o
 .rela.text._ZN10tetgenmesh15setnewpointsizeEPdPNS_4listE
                0x0000000000000000        0x0 /usr/lib/gcc/x86_64-linux-gnu/4.8/../../../x86_64-linux-gnu/crt1.o
 .rela.text._ZN10tetgenmesh11splitencsegEPdPNS_4faceEPNS_4listES4_S4_PNS_5queueEbb
                0x0000000000000000        0x0 /usr/lib/gcc/x86_64-linux-gnu/4.8/../../../x86_64-linux-gnu/crt1.o
 .rela.text._ZN10tetgenmesh11tallencsegsEPdiPPNS_4listE
                0x0000000000000000        0x0 /usr/lib/gcc/x86_64-linux-gnu/4.8/../../../x86_64-linux-gnu/crt1.o
 .rela.text._ZN10tetgenmesh11tallencsubsEPdiPPNS_4listE
                0x0000000000000000        0x0 /usr/lib/gcc/x86_64-linux-gnu/4.8/../../../x86_64-linux-gnu/crt1.o
 .rela.text._ZN10tetgenmesh19tallbadtetrahedronsEv
                0x0000000000000000        0x0 /usr/lib/gcc/x86_64-linux-gnu/4.8/../../../x86_64-linux-gnu/crt1.o
 .rela.text._ZN10tetgenmesh13repairencsegsEbb
                0x0000000000000000        0x0 /usr/lib/gcc/x86_64-linux-gnu/4.8/../../../x86_64-linux-gnu/crt1.o
 .rela.text._ZN10tetgenmesh13repairencsubsEb
                0x0000000000000000        0x0 /usr/lib/gcc/x86_64-linux-gnu/4.8/../../../x86_64-linux-gnu/crt1.o
 .rela.text._ZN10tetgenmesh13repairbadtetsEv
                0x0000000000000000        0x0 /usr/lib/gcc/x86_64-linux-gnu/4.8/../../../x86_64-linux-gnu/crt1.o
 .rela.text._ZN10tetgenmesh14enforcequalityEv
                0x0000000000000000        0x0 /usr/lib/gcc/x86_64-linux-gnu/4.8/../../../x86_64-linux-gnu/crt1.o
 .rela.text._ZN10tetgenmesh12checktet4illEPNS_7trifaceEb
                0x0000000000000000        0x0 /usr/lib/gcc/x86_64-linux-gnu/4.8/../../../x86_64-linux-gnu/crt1.o
 .rela.text._ZN10tetgenmesh15checktet4sliverEPNS_7trifaceEbb
                0x0000000000000000        0x0 /usr/lib/gcc/x86_64-linux-gnu/4.8/../../../x86_64-linux-gnu/crt1.o
 .rela.text._ZN10tetgenmesh19removetetbystripoffEPNS_7trifaceE
                0x0000000000000000        0x0 /usr/lib/gcc/x86_64-linux-gnu/4.8/../../../x86_64-linux-gnu/crt1.o
 .rela.text._ZN10tetgenmesh17removetetbyflip32EPNS_7trifaceEbb
                0x0000000000000000        0x0 /usr/lib/gcc/x86_64-linux-gnu/4.8/../../../x86_64-linux-gnu/crt1.o
 .rela.text._ZN10tetgenmesh16removetetbyreconEPNS_7badfaceEb
                0x0000000000000000        0x0 /usr/lib/gcc/x86_64-linux-gnu/4.8/../../../x86_64-linux-gnu/crt1.o
 .rela.text._ZN10tetgenmesh16removetetbysplitEPNS_7badfaceE
                0x0000000000000000        0x0 /usr/lib/gcc/x86_64-linux-gnu/4.8/../../../x86_64-linux-gnu/crt1.o
 .rela.text._ZN10tetgenmesh11tallsliversEb
                0x0000000000000000        0x0 /usr/lib/gcc/x86_64-linux-gnu/4.8/../../../x86_64-linux-gnu/crt1.o
 .rela.text._ZN10tetgenmesh10repairmeshEv
                0x0000000000000000        0x0 /usr/lib/gcc/x86_64-linux-gnu/4.8/../../../x86_64-linux-gnu/crt1.o
 .rela.text._ZN10tetgenmesh10smoothmeshEv
                0x0000000000000000        0x0 /usr/lib/gcc/x86_64-linux-gnu/4.8/../../../x86_64-linux-gnu/crt1.o
 .rela.text._ZN10tetgenmesh13transfernodesEv
                0x0000000000000000        0x0 /usr/lib/gcc/x86_64-linux-gnu/4.8/../../../x86_64-linux-gnu/crt1.o
 .rela.text._ZN10tetgenmesh13jettisonnodesEv
                0x0000000000000000        0x0 /usr/lib/gcc/x86_64-linux-gnu/4.8/../../../x86_64-linux-gnu/crt1.o
 .rela.text._ZN10tetgenmesh9highorderEv
                0x0000000000000000        0x0 /usr/lib/gcc/x86_64-linux-gnu/4.8/../../../x86_64-linux-gnu/crt1.o
 .rela.text._ZN10tetgenmesh8outnodesEP8tetgenio
                0x0000000000000000        0x0 /usr/lib/gcc/x86_64-linux-gnu/4.8/../../../x86_64-linux-gnu/crt1.o
 .rela.text._ZN10tetgenmesh10outmetricsEP8tetgenio
                0x0000000000000000        0x0 /usr/lib/gcc/x86_64-linux-gnu/4.8/../../../x86_64-linux-gnu/crt1.o
 .rela.text._ZN10tetgenmesh11outelementsEP8tetgenio
                0x0000000000000000        0x0 /usr/lib/gcc/x86_64-linux-gnu/4.8/../../../x86_64-linux-gnu/crt1.o
 .rela.text._ZN10tetgenmesh8outfacesEP8tetgenio
                0x0000000000000000        0x0 /usr/lib/gcc/x86_64-linux-gnu/4.8/../../../x86_64-linux-gnu/crt1.o
 .rela.text._ZN10tetgenmesh12outhullfacesEP8tetgenio
                0x0000000000000000        0x0 /usr/lib/gcc/x86_64-linux-gnu/4.8/../../../x86_64-linux-gnu/crt1.o
 .rela.text._ZN10tetgenmesh11outsubfacesEP8tetgenio
                0x0000000000000000        0x0 /usr/lib/gcc/x86_64-linux-gnu/4.8/../../../x86_64-linux-gnu/crt1.o
 .rela.text._ZN10tetgenmesh14outsubsegmentsEP8tetgenio
                0x0000000000000000        0x0 /usr/lib/gcc/x86_64-linux-gnu/4.8/../../../x86_64-linux-gnu/crt1.o
 .rela.text._ZN10tetgenmesh12outneighborsEP8tetgenio
                0x0000000000000000        0x0 /usr/lib/gcc/x86_64-linux-gnu/4.8/../../../x86_64-linux-gnu/crt1.o
 .rela.text._ZN10tetgenmesh11outpbcnodesEP8tetgenio
                0x0000000000000000        0x0 /usr/lib/gcc/x86_64-linux-gnu/4.8/../../../x86_64-linux-gnu/crt1.o
 .rela.text._ZN10tetgenmesh8outsmeshEPc
                0x0000000000000000        0x0 /usr/lib/gcc/x86_64-linux-gnu/4.8/../../../x86_64-linux-gnu/crt1.o
 .rela.text._ZN10tetgenmesh13outmesh2meditEPc
                0x0000000000000000        0x0 /usr/lib/gcc/x86_64-linux-gnu/4.8/../../../x86_64-linux-gnu/crt1.o
 .rela.text._ZN10tetgenmesh11outmesh2gidEPc
                0x0000000000000000        0x0 /usr/lib/gcc/x86_64-linux-gnu/4.8/../../../x86_64-linux-gnu/crt1.o
 .rela.text._ZN10tetgenmesh11outmesh2offEPc
                0x0000000000000000        0x0 /usr/lib/gcc/x86_64-linux-gnu/4.8/../../../x86_64-linux-gnu/crt1.o
 .rela.text._ZN10tetgenmesh13internalerrorEv
                0x0000000000000000        0x0 /usr/lib/gcc/x86_64-linux-gnu/4.8/../../../x86_64-linux-gnu/crt1.o
 .rela.text._ZN10tetgenmesh9checkmeshEv
                0x0000000000000000        0x0 /usr/lib/gcc/x86_64-linux-gnu/4.8/../../../x86_64-linux-gnu/crt1.o
 .rela.text._ZN10tetgenmesh11checkshellsEv
                0x0000000000000000        0x0 /usr/lib/gcc/x86_64-linux-gnu/4.8/../../../x86_64-linux-gnu/crt1.o
 .rela.text._ZN10tetgenmesh13checkdelaunayEdPNS_5queueE
                0x0000000000000000        0x0 /usr/lib/gcc/x86_64-linux-gnu/4.8/../../../x86_64-linux-gnu/crt1.o
 .rela.text._ZN10tetgenmesh15checkdegeneracyEd
                0x0000000000000000        0x0 /usr/lib/gcc/x86_64-linux-gnu/4.8/../../../x86_64-linux-gnu/crt1.o
 .rela.text._ZN10tetgenmesh15checkconformingEv
                0x0000000000000000        0x0 /usr/lib/gcc/x86_64-linux-gnu/4.8/../../../x86_64-linux-gnu/crt1.o
 .rela.text._ZN10tetgenmesh21algorithmicstatisticsEv
                0x0000000000000000        0x0 /usr/lib/gcc/x86_64-linux-gnu/4.8/../../../x86_64-linux-gnu/crt1.o
 .rela.text._ZN10tetgenmesh17qualitystatisticsEv
                0x0000000000000000        0x0 /usr/lib/gcc/x86_64-linux-gnu/4.8/../../../x86_64-linux-gnu/crt1.o
 .rela.text._ZN10tetgenmesh10statisticsEv
                0x0000000000000000        0x0 /usr/lib/gcc/x86_64-linux-gnu/4.8/../../../x86_64-linux-gnu/crt1.o
 .rela.text._ZN10tetgenmeshD2Ev
                0x0000000000000000        0x0 /usr/lib/gcc/x86_64-linux-gnu/4.8/../../../x86_64-linux-gnu/crt1.o
 .rela.text._ZN10tetgenmeshC2Ev
                0x0000000000000000        0x0 /usr/lib/gcc/x86_64-linux-gnu/4.8/../../../x86_64-linux-gnu/crt1.o
 .rela.text._Z14tetrahedralizeP14tetgenbehaviorP8tetgenioS2_S2_
                0x0000000000000000        0x0 /usr/lib/gcc/x86_64-linux-gnu/4.8/../../../x86_64-linux-gnu/crt1.o
 .rela.text.main
                0x0000000000000000        0x0 /usr/lib/gcc/x86_64-linux-gnu/4.8/../../../x86_64-linux-gnu/crt1.o
 *(.rela.fini)
 *(.rela.rodata .rela.rodata.* .rela.gnu.linkonce.r.*)
 *(.rela.data .rela.data.* .rela.gnu.linkonce.d.*)
 *(.rela.tdata .rela.tdata.* .rela.gnu.linkonce.td.*)
 *(.rela.tbss .rela.tbss.* .rela.gnu.linkonce.tb.*)
 *(.rela.ctors)
 *(.rela.dtors)
 *(.rela.got)
 .rela.got      0x00000000004009c0       0x18 /usr/lib/gcc/x86_64-linux-gnu/4.8/../../../x86_64-linux-gnu/crt1.o
 *(.rela.bss .rela.bss.* .rela.gnu.linkonce.b.*)
 .rela.bss      0x0000000000000000        0x0 /usr/lib/gcc/x86_64-linux-gnu/4.8/../../../x86_64-linux-gnu/crt1.o
 *(.rela.ldata .rela.ldata.* .rela.gnu.linkonce.l.*)
 *(.rela.lbss .rela.lbss.* .rela.gnu.linkonce.lb.*)
 *(.rela.lrodata .rela.lrodata.* .rela.gnu.linkonce.lr.*)
 *(.rela.ifunc)
 .rela.eh_frame
                0x0000000000000000        0x0 /usr/lib/gcc/x86_64-linux-gnu/4.8/../../../x86_64-linux-gnu/crt1.o

.rela.plt       0x00000000004009d8      0x3a8
 *(.rela.plt)
 .rela.plt      0x00000000004009d8      0x3a8 /usr/lib/gcc/x86_64-linux-gnu/4.8/../../../x86_64-linux-gnu/crt1.o
                0x0000000000400d80                PROVIDE (__rela_iplt_start, .)
 *(.rela.iplt)
 .rela.iplt     0x0000000000000000        0x0 /usr/lib/gcc/x86_64-linux-gnu/4.8/../../../x86_64-linux-gnu/crt1.o
                0x0000000000400d80                PROVIDE (__rela_iplt_end, .)

.init           0x0000000000400d80       0x1a
 *(SORT(.init))
 .init          0x0000000000400d80       0x15 /usr/lib/gcc/x86_64-linux-gnu/4.8/../../../x86_64-linux-gnu/crti.o
                0x0000000000400d80                _init
 .init          0x0000000000400d95        0x5 /usr/lib/gcc/x86_64-linux-gnu/4.8/../../../x86_64-linux-gnu/crtn.o

.plt            0x0000000000400da0      0x280
 *(.plt)
 .plt           0x0000000000400da0      0x280 /usr/lib/gcc/x86_64-linux-gnu/4.8/../../../x86_64-linux-gnu/crt1.o
                0x0000000000400db0                printf@@GLIBC_2.2.5
                0x0000000000400dd0                puts@@GLIBC_2.2.5
                0x0000000000400de0                _Znam@@GLIBCXX_3.4
                0x0000000000400df0                _ZdlPv@@GLIBCXX_3.4
                0x0000000000400e00                exit@@GLIBC_2.2.5
                0x0000000000400e10                __assert_fail@@GLIBC_2.2.5
                0x0000000000400e20                putchar@@GLIBC_2.2.5
                0x0000000000400e30                malloc@@GLIBC_2.2.5
                0x0000000000400e40                fopen@@GLIBC_2.2.5
                0x0000000000400e50                __libc_start_main@@GLIBC_2.2.5
                0x0000000000400e60                cos@@GLIBC_2.2.5
                0x0000000000400e70                fgets@@GLIBC_2.2.5
                0x0000000000400e80                fputc@@GLIBC_2.2.5
                0x0000000000400e90                free@@GLIBC_2.2.5
                0x0000000000400ea0                strlen@@GLIBC_2.2.5
                0x0000000000400eb0                sprintf@@GLIBC_2.2.5
                0x0000000000400ec0                sscanf@@GLIBC_2.2.5
                0x0000000000400ed0                strstr@@GLIBC_2.2.5
                0x0000000000400ee0                strcat@@GLIBC_2.2.5
                0x0000000000400ef0                strtol@@GLIBC_2.2.5
                0x0000000000400f00                memmove@@GLIBC_2.2.5
                0x0000000000400f10                clock@@GLIBC_2.2.5
                0x0000000000400f20                __stack_chk_fail@@GLIBC_2.4
                0x0000000000400f30                strcmp@@GLIBC_2.2.5
                0x0000000000400f40                acos@@GLIBC_2.2.5
                0x0000000000400f50                strcpy@@GLIBC_2.2.5
                0x0000000000400f60                _ZdaPv@@GLIBCXX_3.4
                0x0000000000400f70                fclose@@GLIBC_2.2.5
                0x0000000000400f80                strncpy@@GLIBC_2.2.5
                0x0000000000400f90                fwrite@@GLIBC_2.2.5
                0x0000000000400fa0                realloc@@GLIBC_2.2.5
                0x0000000000400fb0                __gxx_personality_v0@@CXXABI_1.3
                0x0000000000400fc0                fprintf@@GLIBC_2.2.5
                0x0000000000400fd0                _Znwm@@GLIBCXX_3.4
                0x0000000000400fe0                _Unwind_Resume@@GCC_3.0
                0x0000000000400ff0                sqrt@@GLIBC_2.2.5
                0x0000000000401000                memcpy@@GLIBC_2.14
                0x0000000000401010                strtod@@GLIBC_2.2.5
 *(.iplt)
 .iplt          0x0000000000000000        0x0 /usr/lib/gcc/x86_64-linux-gnu/4.8/../../../x86_64-linux-gnu/crt1.o

.text           0x0000000000401020    0x7a222
 *(.text.unlikely .text.*_unlikely .text.unlikely.*)
 *(.text.exit .text.exit.*)
 *(.text.startup .text.startup.*)
 *(.text.hot .text.hot.*)
 *(.text .stub .text.* .gnu.linkonce.t.*)
 .text          0x0000000000401020       0x2a /usr/lib/gcc/x86_64-linux-gnu/4.8/../../../x86_64-linux-gnu/crt1.o
                0x0000000000401020                _start
 *fill*         0x000000000040104a        0x6 
 .text          0x0000000000401050       0xbd /usr/lib/gcc/x86_64-linux-gnu/4.8/crtbegin.o
 .text._Z9exactinitv
                0x000000000040110d      0x3e6 tetgen-predicates.o
                0x000000000040110d                _Z9exactinitv
 .text._Z27fast_expansion_sum_zeroelimiPdiS_S_
                0x00000000004014f3      0x543 tetgen-predicates.o
                0x00000000004014f3                _Z27fast_expansion_sum_zeroelimiPdiS_S_
 .text._Z24scale_expansion_zeroelimiPddS_
                0x0000000000401a36      0x434 tetgen-predicates.o
                0x0000000000401a36                _Z24scale_expansion_zeroelimiPddS_
 .text._Z8estimateiPd
                0x0000000000401e6a       0x60 tetgen-predicates.o
                0x0000000000401e6a                _Z8estimateiPd
 .text._Z13orient3dadaptPdS_S_S_d
                0x0000000000401eca     0x8e14 tetgen-predicates.o
                0x0000000000401eca                _Z13orient3dadaptPdS_S_S_d
 .text._Z8orient3dPdS_S_S_
                0x000000000040acde      0x430 tetgen-predicates.o
                0x000000000040acde                _Z8orient3dPdS_S_S_
 .text._Z13insphereexactPdS_S_S_S_
                0x000000000040b10e     0x5184 tetgen-predicates.o
                0x000000000040b10e                _Z13insphereexactPdS_S_S_S_
 .text._Z13insphereadaptPdS_S_S_S_d
                0x0000000000410292     0x3d5b tetgen-predicates.o
                0x0000000000410292                _Z13insphereadaptPdS_S_S_S_d
 .text._Z8inspherePdS_S_S_S_
                0x0000000000413fed      0xc1f tetgen-predicates.o
                0x0000000000413fed                _Z8inspherePdS_S_S_S_
 .text._ZN8tetgenio4initEPNS_7polygonE
                0x0000000000414c0c       0x20 tetgen-tetgen.o
                0x0000000000414c0c                _ZN8tetgenio4initEPNS_7polygonE
 .text._ZN8tetgenio4initEPNS_5facetE
                0x0000000000414c2c       0x37 tetgen-tetgen.o
                0x0000000000414c2c                _ZN8tetgenio4initEPNS_5facetE
 *fill*         0x0000000000414c63        0x1 
 .text._ZN8tetgenioC2Ev
                0x0000000000414c64       0x1a tetgen-tetgen.o
                0x0000000000414c64                _ZN8tetgenioC1Ev
                0x0000000000414c64                _ZN8tetgenioC2Ev
 .text._ZN8tetgenioD2Ev
                0x0000000000414c7e       0x1a tetgen-tetgen.o
                0x0000000000414c7e                _ZN8tetgenioD2Ev
                0x0000000000414c7e                _ZN8tetgenioD1Ev
 .text._ZN14tetgenbehaviorD2Ev
                0x0000000000414c98        0xa tetgen-tetgen.o
                0x0000000000414c98                _ZN14tetgenbehaviorD1Ev
                0x0000000000414c98                _ZN14tetgenbehaviorD2Ev
 .text._ZN10tetgenmesh7trifaceC2Ev
                0x0000000000414ca2       0x2b tetgen-tetgen.o
                0x0000000000414ca2                _ZN10tetgenmesh7trifaceC1Ev
                0x0000000000414ca2                _ZN10tetgenmesh7trifaceC2Ev
 *fill*         0x0000000000414ccd        0x1 
 .text._ZN10tetgenmesh7trifaceaSERKS0_
                0x0000000000414cce       0x3c tetgen-tetgen.o
                0x0000000000414cce                _ZN10tetgenmesh7trifaceaSERKS0_
 .text._ZN10tetgenmesh4faceC2Ev
                0x0000000000414d0a       0x20 tetgen-tetgen.o
                0x0000000000414d0a                _ZN10tetgenmesh4faceC1Ev
                0x0000000000414d0a                _ZN10tetgenmesh4faceC2Ev
 .text._ZN10tetgenmesh4faceaSERKS0_
                0x0000000000414d2a       0x2e tetgen-tetgen.o
                0x0000000000414d2a                _ZN10tetgenmesh4faceaSERKS0_
 .text._ZN10tetgenmesh4faceneERS0_
                0x0000000000414d58       0x3f tetgen-tetgen.o
                0x0000000000414d58                _ZN10tetgenmesh4faceneERS0_
 *fill*         0x0000000000414d97        0x1 
 .text._ZN10tetgenmesh4listC2EiPFiPKvS2_Eii
                0x0000000000414d98       0x38 tetgen-tetgen.o
                0x0000000000414d98                _ZN10tetgenmesh4listC1EiPFiPKvS2_Eii
                0x0000000000414d98                _ZN10tetgenmesh4listC2EiPFiPKvS2_Eii
 .text._ZN10tetgenmesh4listC2EPcii
                0x0000000000414dd0       0x5b tetgen-tetgen.o
                0x0000000000414dd0                _ZN10tetgenmesh4listC1EPcii
                0x0000000000414dd0                _ZN10tetgenmesh4listC2EPcii
 *fill*         0x0000000000414e2b        0x1 
 .text._ZN10tetgenmesh4listD2Ev
                0x0000000000414e2c       0x1d tetgen-tetgen.o
                0x0000000000414e2c                _ZN10tetgenmesh4listD2Ev
                0x0000000000414e2c                _ZN10tetgenmesh4listD1Ev
 *fill*         0x0000000000414e49        0x1 
 .text._ZN10tetgenmesh4listixEi
                0x0000000000414e4a       0x24 tetgen-tetgen.o
                0x0000000000414e4a                _ZN10tetgenmesh4listixEi
 .text._ZN10tetgenmesh4list5clearEv
                0x0000000000414e6e       0x15 tetgen-tetgen.o
                0x0000000000414e6e                _ZN10tetgenmesh4list5clearEv
 *fill*         0x0000000000414e83        0x1 
 .text._ZN10tetgenmesh4list3lenEv
                0x0000000000414e84       0x11 tetgen-tetgen.o
                0x0000000000414e84                _ZN10tetgenmesh4list3lenEv
 *fill*         0x0000000000414e95        0x1 
 .text._ZN10tetgenmesh4linkC2EiPFiPKvS2_Ei
                0x0000000000414e96       0x5c tetgen-tetgen.o
                0x0000000000414e96                _ZN10tetgenmesh4linkC2EiPFiPKvS2_Ei
                0x0000000000414e96                _ZN10tetgenmesh4linkC1EiPFiPKvS2_Ei
 .text._ZN10tetgenmesh4link6rewindEv
                0x0000000000414ef2       0x2b tetgen-tetgen.o
                0x0000000000414ef2                _ZN10tetgenmesh4link6rewindEv
 *fill*         0x0000000000414f1d        0x1 
 .text._ZN10tetgenmesh4link5goendEv
                0x0000000000414f1e       0x2f tetgen-tetgen.o
                0x0000000000414f1e                _ZN10tetgenmesh4link5goendEv
 *fill*         0x0000000000414f4d        0x1 
 .text._ZN10tetgenmesh4link3lenEv
                0x0000000000414f4e       0x13 tetgen-tetgen.o
                0x0000000000414f4e                _ZN10tetgenmesh4link3lenEv
 *fill*         0x0000000000414f61        0x1 
 .text._ZN10tetgenmesh4linkD2Ev
                0x0000000000414f62       0x1a tetgen-tetgen.o
                0x0000000000414f62                _ZN10tetgenmesh4linkD1Ev
                0x0000000000414f62                _ZN10tetgenmesh4linkD2Ev
 .text._ZN10tetgenmesh5queueC2Eii
                0x0000000000414f7c       0x2d tetgen-tetgen.o
                0x0000000000414f7c                _ZN10tetgenmesh5queueC1Eii
                0x0000000000414f7c                _ZN10tetgenmesh5queueC2Eii
 *fill*         0x0000000000414fa9        0x1 
 .text._ZN10tetgenmesh5queue5emptyEv
                0x0000000000414faa       0x19 tetgen-tetgen.o
                0x0000000000414faa                _ZN10tetgenmesh5queue5emptyEv
 *fill*         0x0000000000414fc3        0x1 
 .text._ZN10tetgenmesh5queue4pushEPv
                0x0000000000414fc4       0x25 tetgen-tetgen.o
                0x0000000000414fc4                _ZN10tetgenmesh5queue4pushEPv
 *fill*         0x0000000000414fe9        0x1 
 .text._ZN10tetgenmesh5queue3popEv
                0x0000000000414fea       0x1f tetgen-tetgen.o
                0x0000000000414fea                _ZN10tetgenmesh5queue3popEv
 .text._Z15terminatetetgeni
                0x0000000000415009       0x15 tetgen-tetgen.o
                0x0000000000415009                _Z15terminatetetgeni
 .text._ZN8tetgenio10initializeEv
                0x000000000041501e      0x208 tetgen-tetgen.o
                0x000000000041501e                _ZN8tetgenio10initializeEv
 .text._ZN8tetgenio12deinitializeEv
                0x0000000000415226      0x55d tetgen-tetgen.o
                0x0000000000415226                _ZN8tetgenio12deinitializeEv
 *fill*         0x0000000000415783        0x1 
 .text._ZN8tetgenio14load_node_callEP8_IO_FILEiPc
                0x0000000000415784      0x6bb tetgen-tetgen.o
                0x0000000000415784                _ZN8tetgenio14load_node_callEP8_IO_FILEiPc
 *fill*         0x0000000000415e3f        0x1 
 .text._ZN8tetgenio9load_nodeEPc
                0x0000000000415e40      0x363 tetgen-tetgen.o
                0x0000000000415e40                _ZN8tetgenio9load_nodeEPc
 *fill*         0x00000000004161a3        0x1 
 .text._ZN8tetgenio13load_addnodesEPc
                0x00000000004161a4      0x4d9 tetgen-tetgen.o
                0x00000000004161a4                _ZN8tetgenio13load_addnodesEPc
 *fill*         0x000000000041667d        0x1 
 .text._ZN8tetgenio8load_pbcEPc
                0x000000000041667e      0x6dc tetgen-tetgen.o
                0x000000000041667e                _ZN8tetgenio8load_pbcEPc
 .text._ZN8tetgenio8load_varEPc
                0x0000000000416d5a      0x9b3 tetgen-tetgen.o
                0x0000000000416d5a                _ZN8tetgenio8load_varEPc
 *fill*         0x000000000041770d        0x1 
 .text._ZN8tetgenio8load_mtrEPc
                0x000000000041770e      0x392 tetgen-tetgen.o
                0x000000000041770e                _ZN8tetgenio8load_mtrEPc
 .text._ZN8tetgenio9load_polyEPc
                0x0000000000417aa0     0x1fa2 tetgen-tetgen.o
                0x0000000000417aa0                _ZN8tetgenio9load_polyEPc
 .text._ZN8tetgenio8load_offEPc
                0x0000000000419a42      0x773 tetgen-tetgen.o
                0x0000000000419a42                _ZN8tetgenio8load_offEPc
 *fill*         0x000000000041a1b5        0x1 
 .text._ZN8tetgenio8load_plyEPc
                0x000000000041a1b6      0xabd tetgen-tetgen.o
                0x000000000041a1b6                _ZN8tetgenio8load_plyEPc
 *fill*         0x000000000041ac73        0x1 
 .text._ZN8tetgenio8load_stlEPc
                0x000000000041ac74      0x76c tetgen-tetgen.o
                0x000000000041ac74                _ZN8tetgenio8load_stlEPc
 .text._ZN8tetgenio10load_meditEPc
                0x000000000041b3e0      0xbab tetgen-tetgen.o
                0x000000000041b3e0                _ZN8tetgenio10load_meditEPc
 *fill*         0x000000000041bf8b        0x1 
 .text._ZN8tetgenio8load_plcEPci
                0x000000000041bf8c       0xc4 tetgen-tetgen.o
                0x000000000041bf8c                _ZN8tetgenio8load_plcEPci
 .text._ZN8tetgenio12load_tetmeshEPc
                0x000000000041c050     0x1361 tetgen-tetgen.o
                0x000000000041c050                _ZN8tetgenio12load_tetmeshEPc
 *fill*         0x000000000041d3b1        0x1 
 .text._ZN8tetgenio8readlineEPcP8_IO_FILEPi
                0x000000000041d3b2       0x83 tetgen-tetgen.o
                0x000000000041d3b2                _ZN8tetgenio8readlineEPcP8_IO_FILEPi
 *fill*         0x000000000041d435        0x1 
 .text._ZN8tetgenio13findnextfieldEPc
                0x000000000041d436       0x8b tetgen-tetgen.o
                0x000000000041d436                _ZN8tetgenio13findnextfieldEPc
 *fill*         0x000000000041d4c1        0x1 
 .text._ZN8tetgenio14readnumberlineEPcP8_IO_FILES0_
                0x000000000041d4c2       0xdd tetgen-tetgen.o
                0x000000000041d4c2                _ZN8tetgenio14readnumberlineEPcP8_IO_FILES0_
 *fill*         0x000000000041d59f        0x1 
 .text._ZN8tetgenio14findnextnumberEPc
                0x000000000041d5a0       0xbe tetgen-tetgen.o
                0x000000000041d5a0                _ZN8tetgenio14findnextnumberEPc
 .text._ZN14tetgenbehaviorC2Ev
                0x000000000041d65e      0x2c6 tetgen-tetgen.o
                0x000000000041d65e                _ZN14tetgenbehaviorC2Ev
                0x000000000041d65e                _ZN14tetgenbehaviorC1Ev
 .text._ZN14tetgenbehavior11versioninfoEv
                0x000000000041d924       0x18 tetgen-tetgen.o
                0x000000000041d924                _ZN14tetgenbehavior11versioninfoEv
 .text._ZN14tetgenbehavior6syntaxEv
                0x000000000041d93c      0x176 tetgen-tetgen.o
                0x000000000041d93c                _ZN14tetgenbehavior6syntaxEv
 .text._ZN14tetgenbehavior5usageEv
                0x000000000041dab2      0x26a tetgen-tetgen.o
                0x000000000041dab2                _ZN14tetgenbehavior5usageEv
 .text._ZN14tetgenbehavior17parse_commandlineEiPPc
                0x000000000041dd1c     0x2606 tetgen-tetgen.o
                0x000000000041dd1c                _ZN14tetgenbehavior17parse_commandlineEiPPc
 .text._ZN10tetgenmesh14compare_2_intsEPKvS1_
                0x0000000000420322       0x41 tetgen-tetgen.o
                0x0000000000420322                _ZN10tetgenmesh14compare_2_intsEPKvS1_
 *fill*         0x0000000000420363        0x1 
 .text._ZN10tetgenmesh15compare_2_longsEPKvS1_
                0x0000000000420364       0x47 tetgen-tetgen.o
                0x0000000000420364                _ZN10tetgenmesh15compare_2_longsEPKvS1_
 *fill*         0x00000000004203ab        0x1 
 .text._ZN10tetgenmesh23compare_2_unsignedlongsEPKvS1_
                0x00000000004203ac       0x47 tetgen-tetgen.o
                0x00000000004203ac                _ZN10tetgenmesh23compare_2_unsignedlongsEPKvS1_
 *fill*         0x00000000004203f3        0x1 
 .text._ZN10tetgenmesh12set_compfuncEPcPiPPFiPKvS3_E
                0x00000000004203f4       0xf2 tetgen-tetgen.o
                0x00000000004203f4                _ZN10tetgenmesh12set_compfuncEPcPiPPFiPKvS3_E
 .text._ZN10tetgenmesh4list8listinitEiPFiPKvS2_Eii
                0x00000000004204e6       0xc1 tetgen-tetgen.o
                0x00000000004204e6                _ZN10tetgenmesh4list8listinitEiPFiPKvS2_Eii
 *fill*         0x00000000004205a7        0x1 
 .text._ZN10tetgenmesh4list6appendEPv
                0x00000000004205a8      0x102 tetgen-tetgen.o
                0x00000000004205a8                _ZN10tetgenmesh4list6appendEPv
 .text._ZN10tetgenmesh4list6insertEiPv
                0x00000000004206aa      0x173 tetgen-tetgen.o
                0x00000000004206aa                _ZN10tetgenmesh4list6insertEiPv
 *fill*         0x000000000042081d        0x1 
 .text._ZN10tetgenmesh4list3delEii
                0x000000000042081e       0xfd tetgen-tetgen.o
                0x000000000042081e                _ZN10tetgenmesh4list3delEii
 *fill*         0x000000000042091b        0x1 
 .text._ZN10tetgenmesh10memorypoolC2Ev
                0x000000000042091c       0xc1 tetgen-tetgen.o
                0x000000000042091c                _ZN10tetgenmesh10memorypoolC2Ev
                0x000000000042091c                _ZN10tetgenmesh10memorypoolC1Ev
 *fill*         0x00000000004209dd        0x1 
 .text._ZN10tetgenmesh10memorypoolC2EiiNS_8wordtypeEi
                0x00000000004209de       0x36 tetgen-tetgen.o
                0x00000000004209de                _ZN10tetgenmesh10memorypoolC2EiiNS_8wordtypeEi
                0x00000000004209de                _ZN10tetgenmesh10memorypoolC1EiiNS_8wordtypeEi
 .text._ZN10tetgenmesh10memorypoolD2Ev
                0x0000000000420a14       0x4c tetgen-tetgen.o
                0x0000000000420a14                _ZN10tetgenmesh10memorypoolD1Ev
                0x0000000000420a14                _ZN10tetgenmesh10memorypoolD2Ev
 .text._ZN10tetgenmesh10memorypool8poolinitEiiNS_8wordtypeEi
                0x0000000000420a60      0x140 tetgen-tetgen.o
                0x0000000000420a60                _ZN10tetgenmesh10memorypool8poolinitEiiNS_8wordtypeEi
 .text._ZN10tetgenmesh10memorypool7restartEv
                0x0000000000420ba0       0x97 tetgen-tetgen.o
                0x0000000000420ba0                _ZN10tetgenmesh10memorypool7restartEv
 *fill*         0x0000000000420c37        0x1 
 .text._ZN10tetgenmesh10memorypool5allocEv
                0x0000000000420c38      0x1c5 tetgen-tetgen.o
                0x0000000000420c38                _ZN10tetgenmesh10memorypool5allocEv
 *fill*         0x0000000000420dfd        0x1 
 .text._ZN10tetgenmesh10memorypool7deallocEPv
                0x0000000000420dfe       0x3d tetgen-tetgen.o
                0x0000000000420dfe                _ZN10tetgenmesh10memorypool7deallocEPv
 *fill*         0x0000000000420e3b        0x1 
 .text._ZN10tetgenmesh10memorypool13traversalinitEv
                0x0000000000420e3c       0x73 tetgen-tetgen.o
                0x0000000000420e3c                _ZN10tetgenmesh10memorypool13traversalinitEv
 *fill*         0x0000000000420eaf        0x1 
 .text._ZN10tetgenmesh10memorypool8traverseEv
                0x0000000000420eb0      0x10f tetgen-tetgen.o
                0x0000000000420eb0                _ZN10tetgenmesh10memorypool8traverseEv
 *fill*         0x0000000000420fbf        0x1 
 .text._ZN10tetgenmesh4link8linkinitEiPFiPKvS2_Ei
                0x0000000000420fc0      0x122 tetgen-tetgen.o
                0x0000000000420fc0                _ZN10tetgenmesh4link8linkinitEiPFiPKvS2_Ei
 .text._ZN10tetgenmesh4link5clearEv
                0x00000000004210e2       0xba tetgen-tetgen.o
                0x00000000004210e2                _ZN10tetgenmesh4link5clearEv
 .text._ZN10tetgenmesh4link4moveEi
                0x000000000042119c      0x103 tetgen-tetgen.o
                0x000000000042119c                _ZN10tetgenmesh4link4moveEi
 *fill*         0x000000000042129f        0x1 
 .text._ZN10tetgenmesh4link6locateEi
                0x00000000004212a0       0xca tetgen-tetgen.o
                0x00000000004212a0                _ZN10tetgenmesh4link6locateEi
 .text._ZN10tetgenmesh4link3addEPv
                0x000000000042136a       0xa4 tetgen-tetgen.o
                0x000000000042136a                _ZN10tetgenmesh4link3addEPv
 .text._ZN10tetgenmesh4link3delEPv
                0x000000000042140e       0x87 tetgen-tetgen.o
                0x000000000042140e                _ZN10tetgenmesh4link3delEPv
 *fill*         0x0000000000421495        0x1 
 .text._ZN10tetgenmesh4link3delEi
                0x0000000000421496       0x66 tetgen-tetgen.o
                0x0000000000421496                _ZN10tetgenmesh4link3delEi
 .text._ZN10tetgenmesh4link8getnitemEi
                0x00000000004214fc       0x3c tetgen-tetgen.o
                0x00000000004214fc                _ZN10tetgenmesh4link8getnitemEi
 .text._ZN10tetgenmesh6decodeEPPdRNS_7trifaceE
                0x0000000000421538       0x34 tetgen-tetgen.o
                0x0000000000421538                _ZN10tetgenmesh6decodeEPPdRNS_7trifaceE
 .text._ZN10tetgenmesh6encodeERNS_7trifaceE
                0x000000000042156c       0x24 tetgen-tetgen.o
                0x000000000042156c                _ZN10tetgenmesh6encodeERNS_7trifaceE
 .text._ZN10tetgenmesh3symERNS_7trifaceES1_
                0x0000000000421590       0x4b tetgen-tetgen.o
                0x0000000000421590                _ZN10tetgenmesh3symERNS_7trifaceES1_
 *fill*         0x00000000004215db        0x1 
 .text._ZN10tetgenmesh7symselfERNS_7trifaceE
                0x00000000004215dc       0x47 tetgen-tetgen.o
                0x00000000004215dc                _ZN10tetgenmesh7symselfERNS_7trifaceE
 *fill*         0x0000000000421623        0x1 
 .text._ZN10tetgenmesh4bondERNS_7trifaceES1_
                0x0000000000421624       0x78 tetgen-tetgen.o
                0x0000000000421624                _ZN10tetgenmesh4bondERNS_7trifaceES1_
 .text._ZN10tetgenmesh8dissolveERNS_7trifaceE
                0x000000000042169c       0x30 tetgen-tetgen.o
                0x000000000042169c                _ZN10tetgenmesh8dissolveERNS_7trifaceE
 .text._ZN10tetgenmesh3orgERNS_7trifaceE
                0x00000000004216cc       0x4f tetgen-tetgen.o
                0x00000000004216cc                _ZN10tetgenmesh3orgERNS_7trifaceE
 *fill*         0x000000000042171b        0x1 
 .text._ZN10tetgenmesh4destERNS_7trifaceE
                0x000000000042171c       0x4f tetgen-tetgen.o
                0x000000000042171c                _ZN10tetgenmesh4destERNS_7trifaceE
 *fill*         0x000000000042176b        0x1 
 .text._ZN10tetgenmesh4apexERNS_7trifaceE
                0x000000000042176c       0x4f tetgen-tetgen.o
                0x000000000042176c                _ZN10tetgenmesh4apexERNS_7trifaceE
 *fill*         0x00000000004217bb        0x1 
 .text._ZN10tetgenmesh4oppoERNS_7trifaceE
                0x00000000004217bc       0x35 tetgen-tetgen.o
                0x00000000004217bc                _ZN10tetgenmesh4oppoERNS_7trifaceE
 *fill*         0x00000000004217f1        0x1 
 .text._ZN10tetgenmesh6setorgERNS_7trifaceEPd
                0x00000000004217f2       0x58 tetgen-tetgen.o
                0x00000000004217f2                _ZN10tetgenmesh6setorgERNS_7trifaceEPd
 .text._ZN10tetgenmesh7setdestERNS_7trifaceEPd
                0x000000000042184a       0x58 tetgen-tetgen.o
                0x000000000042184a                _ZN10tetgenmesh7setdestERNS_7trifaceEPd
 .text._ZN10tetgenmesh7setapexERNS_7trifaceEPd
                0x00000000004218a2       0x58 tetgen-tetgen.o
                0x00000000004218a2                _ZN10tetgenmesh7setapexERNS_7trifaceEPd
 .text._ZN10tetgenmesh7setoppoERNS_7trifaceEPd
                0x00000000004218fa       0x3d tetgen-tetgen.o
                0x00000000004218fa                _ZN10tetgenmesh7setoppoERNS_7trifaceEPd
 *fill*         0x0000000000421937        0x1 
 .text._ZN10tetgenmesh4esymERNS_7trifaceES1_
                0x0000000000421938       0x58 tetgen-tetgen.o
                0x0000000000421938                _ZN10tetgenmesh4esymERNS_7trifaceES1_
 .text._ZN10tetgenmesh8esymselfERNS_7trifaceE
                0x0000000000421990       0x38 tetgen-tetgen.o
                0x0000000000421990                _ZN10tetgenmesh8esymselfERNS_7trifaceE
 .text._ZN10tetgenmesh5enextERNS_7trifaceES1_
                0x00000000004219c8       0x45 tetgen-tetgen.o
                0x00000000004219c8                _ZN10tetgenmesh5enextERNS_7trifaceES1_
 *fill*         0x0000000000421a0d        0x1 
 .text._ZN10tetgenmesh9enextselfERNS_7trifaceE
                0x0000000000421a0e       0x25 tetgen-tetgen.o
                0x0000000000421a0e                _ZN10tetgenmesh9enextselfERNS_7trifaceE
 *fill*         0x0000000000421a33        0x1 
 .text._ZN10tetgenmesh6enext2ERNS_7trifaceES1_
                0x0000000000421a34       0x4e tetgen-tetgen.o
                0x0000000000421a34                _ZN10tetgenmesh6enext2ERNS_7trifaceES1_
 .text._ZN10tetgenmesh10enext2selfERNS_7trifaceE
                0x0000000000421a82       0x2e tetgen-tetgen.o
                0x0000000000421a82                _ZN10tetgenmesh10enext2selfERNS_7trifaceE
 .text._ZN10tetgenmesh5fnextERNS_7trifaceES1_
                0x0000000000421ab0       0x2d tetgen-tetgen.o
                0x0000000000421ab0                _ZN10tetgenmesh5fnextERNS_7trifaceES1_
 *fill*         0x0000000000421add        0x1 
 .text._ZN10tetgenmesh9fnextselfERNS_7trifaceE
                0x0000000000421ade       0x2a tetgen-tetgen.o
                0x0000000000421ade                _ZN10tetgenmesh9fnextselfERNS_7trifaceE
 .text._ZN10tetgenmesh10enextfnextERNS_7trifaceES1_
                0x0000000000421b08       0x40 tetgen-tetgen.o
                0x0000000000421b08                _ZN10tetgenmesh10enextfnextERNS_7trifaceES1_
 .text._ZN10tetgenmesh14enextfnextselfERNS_7trifaceE
                0x0000000000421b48       0x38 tetgen-tetgen.o
                0x0000000000421b48                _ZN10tetgenmesh14enextfnextselfERNS_7trifaceE
 .text._ZN10tetgenmesh11enext2fnextERNS_7trifaceES1_
                0x0000000000421b80       0x40 tetgen-tetgen.o
                0x0000000000421b80                _ZN10tetgenmesh11enext2fnextERNS_7trifaceES1_
 .text._ZN10tetgenmesh15enext2fnextselfERNS_7trifaceE
                0x0000000000421bc0       0x38 tetgen-tetgen.o
                0x0000000000421bc0                _ZN10tetgenmesh15enext2fnextselfERNS_7trifaceE
 .text._ZN10tetgenmesh6infectERNS_7trifaceE
                0x0000000000421bf8       0x26 tetgen-tetgen.o
                0x0000000000421bf8                _ZN10tetgenmesh6infectERNS_7trifaceE
 .text._ZN10tetgenmesh8uninfectERNS_7trifaceE
                0x0000000000421c1e       0x26 tetgen-tetgen.o
                0x0000000000421c1e                _ZN10tetgenmesh8uninfectERNS_7trifaceE
 .text._ZN10tetgenmesh8infectedERNS_7trifaceE
                0x0000000000421c44       0x21 tetgen-tetgen.o
                0x0000000000421c44                _ZN10tetgenmesh8infectedERNS_7trifaceE
 *fill*         0x0000000000421c65        0x1 
 .text._ZN10tetgenmesh13elemattributeEPPPdi
                0x0000000000421c66       0x3d tetgen-tetgen.o
                0x0000000000421c66                _ZN10tetgenmesh13elemattributeEPPPdi
 *fill*         0x0000000000421ca3        0x1 
 .text._ZN10tetgenmesh16setelemattributeEPPPdid
                0x0000000000421ca4       0x3d tetgen-tetgen.o
                0x0000000000421ca4                _ZN10tetgenmesh16setelemattributeEPPPdid
 *fill*         0x0000000000421ce1        0x1 
 .text._ZN10tetgenmesh11volumeboundEPPPd
                0x0000000000421ce2       0x35 tetgen-tetgen.o
                0x0000000000421ce2                _ZN10tetgenmesh11volumeboundEPPPd
 *fill*         0x0000000000421d17        0x1 
 .text._ZN10tetgenmesh14setvolumeboundEPPPdd
                0x0000000000421d18       0x35 tetgen-tetgen.o
                0x0000000000421d18                _ZN10tetgenmesh14setvolumeboundEPPPdd
 *fill*         0x0000000000421d4d        0x1 
 .text._ZN10tetgenmesh7sdecodeEPPdRNS_4faceE
                0x0000000000421d4e       0x34 tetgen-tetgen.o
                0x0000000000421d4e                _ZN10tetgenmesh7sdecodeEPPdRNS_4faceE
 .text._ZN10tetgenmesh7sencodeERNS_4faceE
                0x0000000000421d82       0x24 tetgen-tetgen.o
                0x0000000000421d82                _ZN10tetgenmesh7sencodeERNS_4faceE
 .text._ZN10tetgenmesh6spivotERNS_4faceES1_
                0x0000000000421da6       0x4d tetgen-tetgen.o
                0x0000000000421da6                _ZN10tetgenmesh6spivotERNS_4faceES1_
 *fill*         0x0000000000421df3        0x1 
 .text._ZN10tetgenmesh10spivotselfERNS_4faceE
                0x0000000000421df4       0x49 tetgen-tetgen.o
                0x0000000000421df4                _ZN10tetgenmesh10spivotselfERNS_4faceE
 *fill*         0x0000000000421e3d        0x1 
 .text._ZN10tetgenmesh5sbondERNS_4faceES1_
                0x0000000000421e3e       0x7c tetgen-tetgen.o
                0x0000000000421e3e                _ZN10tetgenmesh5sbondERNS_4faceES1_
 .text._ZN10tetgenmesh6sbond1ERNS_4faceES1_
                0x0000000000421eba       0x4c tetgen-tetgen.o
                0x0000000000421eba                _ZN10tetgenmesh6sbond1ERNS_4faceES1_
 .text._ZN10tetgenmesh9sdissolveERNS_4faceE
                0x0000000000421f06       0x32 tetgen-tetgen.o
                0x0000000000421f06                _ZN10tetgenmesh9sdissolveERNS_4faceE
 .text._ZN10tetgenmesh4sorgERNS_4faceE
                0x0000000000421f38       0x35 tetgen-tetgen.o
                0x0000000000421f38                _ZN10tetgenmesh4sorgERNS_4faceE
 *fill*         0x0000000000421f6d        0x1 
 .text._ZN10tetgenmesh5sdestERNS_4faceE
                0x0000000000421f6e       0x35 tetgen-tetgen.o
                0x0000000000421f6e                _ZN10tetgenmesh5sdestERNS_4faceE
 *fill*         0x0000000000421fa3        0x1 
 .text._ZN10tetgenmesh5sapexERNS_4faceE
                0x0000000000421fa4       0x35 tetgen-tetgen.o
                0x0000000000421fa4                _ZN10tetgenmesh5sapexERNS_4faceE
 *fill*         0x0000000000421fd9        0x1 
 .text._ZN10tetgenmesh7setsorgERNS_4faceEPd
                0x0000000000421fda       0x3d tetgen-tetgen.o
                0x0000000000421fda                _ZN10tetgenmesh7setsorgERNS_4faceEPd
 *fill*         0x0000000000422017        0x1 
 .text._ZN10tetgenmesh8setsdestERNS_4faceEPd
                0x0000000000422018       0x3d tetgen-tetgen.o
                0x0000000000422018                _ZN10tetgenmesh8setsdestERNS_4faceEPd
 *fill*         0x0000000000422055        0x1 
 .text._ZN10tetgenmesh8setsapexERNS_4faceEPd
                0x0000000000422056       0x3d tetgen-tetgen.o
                0x0000000000422056                _ZN10tetgenmesh8setsapexERNS_4faceEPd
 *fill*         0x0000000000422093        0x1 
 .text._ZN10tetgenmesh5sesymERNS_4faceES1_
                0x0000000000422094       0x4a tetgen-tetgen.o
                0x0000000000422094                _ZN10tetgenmesh5sesymERNS_4faceES1_
 .text._ZN10tetgenmesh9sesymselfERNS_4faceE
                0x00000000004220de       0x38 tetgen-tetgen.o
                0x00000000004220de                _ZN10tetgenmesh9sesymselfERNS_4faceE
 .text._ZN10tetgenmesh6senextERNS_4faceES1_
                0x0000000000422116       0x37 tetgen-tetgen.o
                0x0000000000422116                _ZN10tetgenmesh6senextERNS_4faceES1_
 *fill*         0x000000000042214d        0x1 
 .text._ZN10tetgenmesh10senextselfERNS_4faceE
                0x000000000042214e       0x25 tetgen-tetgen.o
                0x000000000042214e                _ZN10tetgenmesh10senextselfERNS_4faceE
 *fill*         0x0000000000422173        0x1 
 .text._ZN10tetgenmesh7senext2ERNS_4faceES1_
                0x0000000000422174       0x40 tetgen-tetgen.o
                0x0000000000422174                _ZN10tetgenmesh7senext2ERNS_4faceES1_
 .text._ZN10tetgenmesh11senext2selfERNS_4faceE
                0x00000000004221b4       0x2e tetgen-tetgen.o
                0x00000000004221b4                _ZN10tetgenmesh11senext2selfERNS_4faceE
 .text._ZN10tetgenmesh10sfnextselfERNS_4faceE
                0x00000000004221e2       0x2a tetgen-tetgen.o
                0x00000000004221e2                _ZN10tetgenmesh10sfnextselfERNS_4faceE
 .text._ZN10tetgenmesh13shell2badfaceERNS_4faceE
                0x000000000042220c       0x19 tetgen-tetgen.o
                0x000000000042220c                _ZN10tetgenmesh13shell2badfaceERNS_4faceE
 *fill*         0x0000000000422225        0x1 
 .text._ZN10tetgenmesh16setshell2badfaceERNS_4faceEPNS_7badfaceE
                0x0000000000422226       0x24 tetgen-tetgen.o
                0x0000000000422226                _ZN10tetgenmesh16setshell2badfaceERNS_4faceEPNS_7badfaceE
 .text._ZN10tetgenmesh9areaboundERNS_4faceE
                0x000000000042224a       0x34 tetgen-tetgen.o
                0x000000000042224a                _ZN10tetgenmesh9areaboundERNS_4faceE
 .text._ZN10tetgenmesh12setareaboundERNS_4faceEd
                0x000000000042227e       0x34 tetgen-tetgen.o
                0x000000000042227e                _ZN10tetgenmesh12setareaboundERNS_4faceEd
 .text._ZN10tetgenmesh9shellmarkERNS_4faceE
                0x00000000004222b2       0x2a tetgen-tetgen.o
                0x00000000004222b2                _ZN10tetgenmesh9shellmarkERNS_4faceE
 .text._ZN10tetgenmesh12setshellmarkERNS_4faceEi
                0x00000000004222dc       0x30 tetgen-tetgen.o
                0x00000000004222dc                _ZN10tetgenmesh12setshellmarkERNS_4faceEi
 .text._ZN10tetgenmesh9shelltypeERNS_4faceE
                0x000000000042230c       0x2e tetgen-tetgen.o
                0x000000000042230c                _ZN10tetgenmesh9shelltypeERNS_4faceE
 .text._ZN10tetgenmesh12setshelltypeERNS_4faceENS_8shestypeE
                0x000000000042233a       0x34 tetgen-tetgen.o
                0x000000000042233a                _ZN10tetgenmesh12setshelltypeERNS_4faceENS_8shestypeE
 .text._ZN10tetgenmesh13shellpbcgroupERNS_4faceE
                0x000000000042236e       0x2e tetgen-tetgen.o
                0x000000000042236e                _ZN10tetgenmesh13shellpbcgroupERNS_4faceE
 .text._ZN10tetgenmesh16setshellpbcgroupERNS_4faceEi
                0x000000000042239c       0x34 tetgen-tetgen.o
                0x000000000042239c                _ZN10tetgenmesh16setshellpbcgroupERNS_4faceEi
 .text._ZN10tetgenmesh7sinfectERNS_4faceE
                0x00000000004223d0       0x2e tetgen-tetgen.o
                0x00000000004223d0                _ZN10tetgenmesh7sinfectERNS_4faceE
 .text._ZN10tetgenmesh9suninfectERNS_4faceE
                0x00000000004223fe       0x2e tetgen-tetgen.o
                0x00000000004223fe                _ZN10tetgenmesh9suninfectERNS_4faceE
 .text._ZN10tetgenmesh9sinfectedERNS_4faceE
                0x000000000042242c       0x25 tetgen-tetgen.o
                0x000000000042242c                _ZN10tetgenmesh9sinfectedERNS_4faceE
 *fill*         0x0000000000422451        0x1 
 .text._ZN10tetgenmesh7tspivotERNS_7trifaceERNS_4faceE
                0x0000000000422452       0x4f tetgen-tetgen.o
                0x0000000000422452                _ZN10tetgenmesh7tspivotERNS_7trifaceERNS_4faceE
 *fill*         0x00000000004224a1        0x1 
 .text._ZN10tetgenmesh7stpivotERNS_4faceERNS_7trifaceE
                0x00000000004224a2       0x52 tetgen-tetgen.o
                0x00000000004224a2                _ZN10tetgenmesh7stpivotERNS_4faceERNS_7trifaceE
 .text._ZN10tetgenmesh6tsbondERNS_7trifaceERNS_4faceE
                0x00000000004224f4       0x83 tetgen-tetgen.o
                0x00000000004224f4                _ZN10tetgenmesh6tsbondERNS_7trifaceERNS_4faceE
 *fill*         0x0000000000422577        0x1 
 .text._ZN10tetgenmesh10tsdissolveERNS_7trifaceE
                0x0000000000422578       0x34 tetgen-tetgen.o
                0x0000000000422578                _ZN10tetgenmesh10tsdissolveERNS_7trifaceE
 .text._ZN10tetgenmesh10stdissolveERNS_4faceE
                0x00000000004225ac       0x37 tetgen-tetgen.o
                0x00000000004225ac                _ZN10tetgenmesh10stdissolveERNS_4faceE
 *fill*         0x00000000004225e3        0x1 
 .text._ZN10tetgenmesh7sspivotERNS_4faceES1_
                0x00000000004225e4       0x51 tetgen-tetgen.o
                0x00000000004225e4                _ZN10tetgenmesh7sspivotERNS_4faceES1_
 *fill*         0x0000000000422635        0x1 
 .text._ZN10tetgenmesh6ssbondERNS_4faceES1_
                0x0000000000422636       0x6d tetgen-tetgen.o
                0x0000000000422636                _ZN10tetgenmesh6ssbondERNS_4faceES1_
 *fill*         0x00000000004226a3        0x1 
 .text._ZN10tetgenmesh10ssdissolveERNS_4faceE
                0x00000000004226a4       0x36 tetgen-tetgen.o
                0x00000000004226a4                _ZN10tetgenmesh10ssdissolveERNS_4faceE
 .text._ZN10tetgenmesh9pointmarkEPd
                0x00000000004226da       0x2b tetgen-tetgen.o
                0x00000000004226da                _ZN10tetgenmesh9pointmarkEPd
 *fill*         0x0000000000422705        0x1 
 .text._ZN10tetgenmesh12setpointmarkEPdi
                0x0000000000422706       0x31 tetgen-tetgen.o
                0x0000000000422706                _ZN10tetgenmesh12setpointmarkEPdi
 *fill*         0x0000000000422737        0x1 
 .text._ZN10tetgenmesh9pointtypeEPd
                0x0000000000422738       0x2f tetgen-tetgen.o
                0x0000000000422738                _ZN10tetgenmesh9pointtypeEPd
 *fill*         0x0000000000422767        0x1 
 .text._ZN10tetgenmesh12setpointtypeEPdNS_8verttypeE
                0x0000000000422768       0x35 tetgen-tetgen.o
                0x0000000000422768                _ZN10tetgenmesh12setpointtypeEPdNS_8verttypeE
 *fill*         0x000000000042279d        0x1 
 .text._ZN10tetgenmesh9point2tetEPd
                0x000000000042279e       0x2c tetgen-tetgen.o
                0x000000000042279e                _ZN10tetgenmesh9point2tetEPd
 .text._ZN10tetgenmesh12setpoint2tetEPdPS0_
                0x00000000004227ca       0x34 tetgen-tetgen.o
                0x00000000004227ca                _ZN10tetgenmesh12setpoint2tetEPdPS0_
 .text._ZN10tetgenmesh11setpoint2shEPdPS0_
                0x00000000004227fe       0x38 tetgen-tetgen.o
                0x00000000004227fe                _ZN10tetgenmesh11setpoint2shEPdPS0_
 .text._ZN10tetgenmesh9point2pptEPd
                0x0000000000422836       0x30 tetgen-tetgen.o
                0x0000000000422836                _ZN10tetgenmesh9point2pptEPd
 .text._ZN10tetgenmesh12setpoint2pptEPdS0_
                0x0000000000422866       0x38 tetgen-tetgen.o
                0x0000000000422866                _ZN10tetgenmesh12setpoint2pptEPdS0_
 .text._ZN10tetgenmesh12point2bgmtetEPd
                0x000000000042289e       0x30 tetgen-tetgen.o
                0x000000000042289e                _ZN10tetgenmesh12point2bgmtetEPd
 .text._ZN10tetgenmesh15setpoint2bgmtetEPdPS0_
                0x00000000004228ce       0x38 tetgen-tetgen.o
                0x00000000004228ce                _ZN10tetgenmesh15setpoint2bgmtetEPdPS0_
 .text._ZN10tetgenmesh11point2pbcptEPd
                0x0000000000422906       0x2c tetgen-tetgen.o
                0x0000000000422906                _ZN10tetgenmesh11point2pbcptEPd
 .text._ZN10tetgenmesh14setpoint2pbcptEPdS0_
                0x0000000000422932       0x34 tetgen-tetgen.o
                0x0000000000422932                _ZN10tetgenmesh14setpoint2pbcptEPdS0_
 .text._ZN10tetgenmesh14adjustedgeringERNS_7trifaceEi
                0x0000000000422966       0x37 tetgen-tetgen.o
                0x0000000000422966                _ZN10tetgenmesh14adjustedgeringERNS_7trifaceEi
 *fill*         0x000000000042299d        0x1 
 .text._ZN10tetgenmesh14adjustedgeringERNS_4faceEi
                0x000000000042299e       0x37 tetgen-tetgen.o
                0x000000000042299e                _ZN10tetgenmesh14adjustedgeringERNS_4faceEi
 *fill*         0x00000000004229d5        0x1 
 .text._ZN10tetgenmesh6isdeadEPNS_7trifaceE
                0x00000000004229d6       0x35 tetgen-tetgen.o
                0x00000000004229d6                _ZN10tetgenmesh6isdeadEPNS_7trifaceE
 *fill*         0x0000000000422a0b        0x1 
 .text._ZN10tetgenmesh6isdeadEPNS_4faceE
                0x0000000000422a0c       0x35 tetgen-tetgen.o
                0x0000000000422a0c                _ZN10tetgenmesh6isdeadEPNS_4faceE
 *fill*         0x0000000000422a41        0x1 
 .text._ZN10tetgenmesh14isfacehaspointEPNS_7trifaceEPd
                0x0000000000422a42       0x6d tetgen-tetgen.o
                0x0000000000422a42                _ZN10tetgenmesh14isfacehaspointEPNS_7trifaceEPd
 *fill*         0x0000000000422aaf        0x1 
 .text._ZN10tetgenmesh14isfacehaspointEPNS_4faceEPd
                0x0000000000422ab0       0x5a tetgen-tetgen.o
                0x0000000000422ab0                _ZN10tetgenmesh14isfacehaspointEPNS_4faceEPd
 .text._ZN10tetgenmesh13isfacehasedgeEPNS_4faceEPdS2_
                0x0000000000422b0a       0x5c tetgen-tetgen.o
                0x0000000000422b0a                _ZN10tetgenmesh13isfacehasedgeEPNS_4faceEPdS2_
 .text._ZN10tetgenmesh10issymexistEPNS_7trifaceE
                0x0000000000422b66       0x3f tetgen-tetgen.o
                0x0000000000422b66                _ZN10tetgenmesh10issymexistEPNS_7trifaceE
 *fill*         0x0000000000422ba5        0x1 
 .text._ZN10tetgenmesh11getnextfaceEPNS_7trifaceES1_
                0x0000000000422ba6      0x1d3 tetgen-tetgen.o
                0x0000000000422ba6                _ZN10tetgenmesh11getnextfaceEPNS_7trifaceES1_
 *fill*         0x0000000000422d79        0x1 
 .text._ZN10tetgenmesh12getnextsfaceEPNS_4faceES1_
                0x0000000000422d7a      0x196 tetgen-tetgen.o
                0x0000000000422d7a                _ZN10tetgenmesh12getnextsfaceEPNS_4faceES1_
 .text._ZN10tetgenmesh8tsspivotEPNS_7trifaceEPNS_4faceE
                0x0000000000422f10      0x213 tetgen-tetgen.o
                0x0000000000422f10                _ZN10tetgenmesh8tsspivotEPNS_7trifaceEPNS_4faceE
 *fill*         0x0000000000423123        0x1 
 .text._ZN10tetgenmesh8sstpivotEPNS_4faceEPNS_7trifaceE
                0x0000000000423124      0x130 tetgen-tetgen.o
                0x0000000000423124                _ZN10tetgenmesh8sstpivotEPNS_4faceEPNS_7trifaceE
 .text._ZN10tetgenmesh7findorgEPNS_7trifaceEPd
                0x0000000000423254      0x119 tetgen-tetgen.o
                0x0000000000423254                _ZN10tetgenmesh7findorgEPNS_7trifaceEPd
 *fill*         0x000000000042336d        0x1 
 .text._ZN10tetgenmesh8findedgeEPNS_7trifaceEPdS2_
                0x000000000042336e       0xef tetgen-tetgen.o
                0x000000000042336e                _ZN10tetgenmesh8findedgeEPNS_7trifaceEPdS2_
 *fill*         0x000000000042345d        0x1 
 .text._ZN10tetgenmesh8findedgeEPNS_4faceEPdS2_
                0x000000000042345e       0xef tetgen-tetgen.o
                0x000000000042345e                _ZN10tetgenmesh8findedgeEPNS_4faceEPdS2_
 *fill*         0x000000000042354d        0x1 
 .text._ZN10tetgenmesh8printtetEPNS_7trifaceE
                0x000000000042354e      0x5ad tetgen-tetgen.o
                0x000000000042354e                _ZN10tetgenmesh8printtetEPNS_7trifaceE
 *fill*         0x0000000000423afb        0x1 
 .text._ZN10tetgenmesh7printshEPNS_4faceE
                0x0000000000423afc      0x6fc tetgen-tetgen.o
                0x0000000000423afc                _ZN10tetgenmesh7printshEPNS_4faceE
 .text._ZN10tetgenmesh16makepoint2tetmapEv
                0x00000000004241f8      0x1d0 tetgen-tetgen.o
                0x00000000004241f8                _ZN10tetgenmesh16makepoint2tetmapEv
 .text._ZN10tetgenmesh18makeindex2pointmapERPPd
                0x00000000004243c8       0xc4 tetgen-tetgen.o
                0x00000000004243c8                _ZN10tetgenmesh18makeindex2pointmapERPPd
 .text._ZN10tetgenmesh14makesegmentmapERPiRPPPPd
                0x000000000042448c      0x38e tetgen-tetgen.o
                0x000000000042448c                _ZN10tetgenmesh14makesegmentmapERPiRPPPPd
 .text._ZN10tetgenmesh14makesubfacemapERPiRPPPPd
                0x000000000042481a      0x38e tetgen-tetgen.o
                0x000000000042481a                _ZN10tetgenmesh14makesubfacemapERPiRPPPPd
 .text._ZN10tetgenmesh18maketetrahedronmapERPiRPPPPd
                0x0000000000424ba8      0x35b tetgen-tetgen.o
                0x0000000000424ba8                _ZN10tetgenmesh18maketetrahedronmapERPiRPPPPd
 *fill*         0x0000000000424f03        0x1 
 .text._ZN10tetgenmesh3dotEPdS0_
                0x0000000000424f04       0x78 tetgen-tetgen.o
                0x0000000000424f04                _ZN10tetgenmesh3dotEPdS0_
 .text._ZN10tetgenmesh5crossEPdS0_S0_
                0x0000000000424f7c       0xe6 tetgen-tetgen.o
                0x0000000000424f7c                _ZN10tetgenmesh5crossEPdS0_S0_
 .text._ZL5m4xm4PA4_dS0_
                0x0000000000425062      0x148 tetgen-tetgen.o
 .text._ZN10tetgenmesh8lu_decmpEPA4_diPiPdi
                0x00000000004251aa      0x488 tetgen-tetgen.o
                0x00000000004251aa                _ZN10tetgenmesh8lu_decmpEPA4_diPiPdi
 .text._ZN10tetgenmesh8lu_solveEPA4_diPiPdi
                0x0000000000425632      0x22e tetgen-tetgen.o
                0x0000000000425632                _ZN10tetgenmesh8lu_solveEPA4_diPiPdi
 .text._ZN10tetgenmesh19edge_vert_col_interEPdS0_S0_
                0x0000000000425860      0x2b4 tetgen-tetgen.o
                0x0000000000425860                _ZN10tetgenmesh19edge_vert_col_interEPdS0_S0_
 .text._ZN10tetgenmesh19edge_edge_cop_interEPdS0_S0_S0_S0_
                0x0000000000425b14      0x483 tetgen-tetgen.o
                0x0000000000425b14                _ZN10tetgenmesh19edge_edge_cop_interEPdS0_S0_S0_S0_
 *fill*         0x0000000000425f97        0x1 
 .text._ZN10tetgenmesh18tri_vert_cop_interEPdS0_S0_S0_S0_
                0x0000000000425f98      0x23f tetgen-tetgen.o
                0x0000000000425f98                _ZN10tetgenmesh18tri_vert_cop_interEPdS0_S0_S0_S0_
 *fill*         0x00000000004261d7        0x1 
 .text._ZN10tetgenmesh18tri_edge_cop_interEPdS0_S0_S0_S0_S0_
                0x00000000004261d8      0x1cb tetgen-tetgen.o
                0x00000000004261d8                _ZN10tetgenmesh18tri_edge_cop_interEPdS0_S0_S0_S0_S0_
 *fill*         0x00000000004263a3        0x1 
 .text._ZN10tetgenmesh19tri_edge_inter_tailEPdS0_S0_S0_S0_dd
                0x00000000004263a4      0x7eb tetgen-tetgen.o
                0x00000000004263a4                _ZN10tetgenmesh19tri_edge_inter_tailEPdS0_S0_S0_S0_dd
 *fill*         0x0000000000426b8f        0x1 
 .text._ZN10tetgenmesh13tri_tri_interEPdS0_S0_S0_S0_S0_
                0x0000000000426b90      0x53a tetgen-tetgen.o
                0x0000000000426b90                _ZN10tetgenmesh13tri_tri_interEPdS0_S0_S0_S0_S0_
 .text._ZN10tetgenmesh12insphere_sosEPdS0_S0_S0_S0_iiiii
                0x00000000004270ca      0x2cf tetgen-tetgen.o
                0x00000000004270ca                _ZN10tetgenmesh12insphere_sosEPdS0_S0_S0_S0_iiiii
 *fill*         0x0000000000427399        0x1 
 .text._ZN10tetgenmesh11iscollinearEPdS0_S0_d
                0x000000000042739a      0x237 tetgen-tetgen.o
                0x000000000042739a                _ZN10tetgenmesh11iscollinearEPdS0_S0_d
 *fill*         0x00000000004275d1        0x1 
 .text._ZN10tetgenmesh10iscoplanarEPdS0_S0_S0_dd
                0x00000000004275d2      0x44b tetgen-tetgen.o
                0x00000000004275d2                _ZN10tetgenmesh10iscoplanarEPdS0_S0_S0_dd
 *fill*         0x0000000000427a1d        0x1 
 .text._ZN10tetgenmesh11iscosphericEPdS0_S0_S0_S0_dd
                0x0000000000427a1e      0x216 tetgen-tetgen.o
                0x0000000000427a1e                _ZN10tetgenmesh11iscosphericEPdS0_S0_S0_S0_dd
 .text._ZN10tetgenmesh8distanceEPdS0_
                0x0000000000427c34       0xe5 tetgen-tetgen.o
                0x0000000000427c34                _ZN10tetgenmesh8distanceEPdS0_
 *fill*         0x0000000000427d19        0x1 
 .text._ZN10tetgenmesh13interiorangleEPdS0_S0_S0_
                0x0000000000427d1a      0x37c tetgen-tetgen.o
                0x0000000000427d1a                _ZN10tetgenmesh13interiorangleEPdS0_S0_S0_
 .text._ZN10tetgenmesh11projpt2edgeEPdS0_S0_S0_
                0x0000000000428096      0x1f9 tetgen-tetgen.o
                0x0000000000428096                _ZN10tetgenmesh11projpt2edgeEPdS0_S0_S0_
 *fill*         0x000000000042828f        0x1 
 .text._ZN10tetgenmesh11projpt2faceEPdS0_S0_S0_S0_
                0x0000000000428290      0x1a7 tetgen-tetgen.o
                0x0000000000428290                _ZN10tetgenmesh11projpt2faceEPdS0_S0_S0_S0_
 *fill*         0x0000000000428437        0x1 
 .text._ZN10tetgenmesh10facenormalEPdS0_S0_S0_S0_
                0x0000000000428438      0x135 tetgen-tetgen.o
                0x0000000000428438                _ZN10tetgenmesh10facenormalEPdS0_S0_S0_S0_
 *fill*         0x000000000042856d        0x1 
 .text._ZN10tetgenmesh12facedihedralEPdS0_S0_S0_
                0x000000000042856e      0x187 tetgen-tetgen.o
                0x000000000042856e                _ZN10tetgenmesh12facedihedralEPdS0_S0_S0_
 *fill*         0x00000000004286f5        0x1 
 .text._ZN10tetgenmesh14tetalldihedralEPdS0_S0_S0_S0_S0_S0_
                0x00000000004286f6      0x319 tetgen-tetgen.o
                0x00000000004286f6                _ZN10tetgenmesh14tetalldihedralEPdS0_S0_S0_S0_S0_S0_
 *fill*         0x0000000000428a0f        0x1 
 .text._ZN10tetgenmesh12tetallnormalEPdS0_S0_S0_PA3_dS0_
                0x0000000000428a10      0x3b3 tetgen-tetgen.o
                0x0000000000428a10                _ZN10tetgenmesh12tetallnormalEPdS0_S0_S0_PA3_dS0_
 *fill*         0x0000000000428dc3        0x1 
 .text._ZN10tetgenmesh12circumsphereEPdS0_S0_S0_S0_S0_
                0x0000000000428dc4      0x3d2 tetgen-tetgen.o
                0x0000000000428dc4                _ZN10tetgenmesh12circumsphereEPdS0_S0_S0_S0_S0_
 .text._ZN10tetgenmesh9dummyinitEii
                0x0000000000429196      0x324 tetgen-tetgen.o
                0x0000000000429196                _ZN10tetgenmesh9dummyinitEii
 .text._ZN10tetgenmesh15initializepoolsEv
                0x00000000004294ba      0x5c2 tetgen-tetgen.o
                0x00000000004294ba                _ZN10tetgenmesh15initializepoolsEv
 .text._ZN10tetgenmesh18tetrahedrondeallocEPPPd
                0x0000000000429a7c       0x65 tetgen-tetgen.o
                0x0000000000429a7c                _ZN10tetgenmesh18tetrahedrondeallocEPPPd
 *fill*         0x0000000000429ae1        0x1 
 .text._ZN10tetgenmesh19tetrahedrontraverseEv
                0x0000000000429ae2       0x44 tetgen-tetgen.o
                0x0000000000429ae2                _ZN10tetgenmesh19tetrahedrontraverseEv
 .text._ZN10tetgenmesh16shellfacedeallocEPNS_10memorypoolEPPPd
                0x0000000000429b26       0x56 tetgen-tetgen.o
                0x0000000000429b26                _ZN10tetgenmesh16shellfacedeallocEPNS_10memorypoolEPPPd
 .text._ZN10tetgenmesh17shellfacetraverseEPNS_10memorypoolE
                0x0000000000429b7c       0x44 tetgen-tetgen.o
                0x0000000000429b7c                _ZN10tetgenmesh17shellfacetraverseEPNS_10memorypoolE
 .text._ZN10tetgenmesh14badfacedeallocEPNS_10memorypoolEPNS_7badfaceE
                0x0000000000429bc0       0x35 tetgen-tetgen.o
                0x0000000000429bc0                _ZN10tetgenmesh14badfacedeallocEPNS_10memorypoolEPNS_7badfaceE
 *fill*         0x0000000000429bf5        0x1 
 .text._ZN10tetgenmesh15badfacetraverseEPNS_10memorypoolE
                0x0000000000429bf6       0x41 tetgen-tetgen.o
                0x0000000000429bf6                _ZN10tetgenmesh15badfacetraverseEPNS_10memorypoolE
 *fill*         0x0000000000429c37        0x1 
 .text._ZN10tetgenmesh12pointdeallocEPd
                0x0000000000429c38       0x41 tetgen-tetgen.o
                0x0000000000429c38                _ZN10tetgenmesh12pointdeallocEPd
 *fill*         0x0000000000429c79        0x1 
 .text._ZN10tetgenmesh13pointtraverseEv
                0x0000000000429c7a       0x53 tetgen-tetgen.o
                0x0000000000429c7a                _ZN10tetgenmesh13pointtraverseEv
 *fill*         0x0000000000429ccd        0x1 
 .text._ZN10tetgenmesh15maketetrahedronEPNS_7trifaceE
                0x0000000000429cce      0x1ab tetgen-tetgen.o
                0x0000000000429cce                _ZN10tetgenmesh15maketetrahedronEPNS_7trifaceE
 *fill*         0x0000000000429e79        0x1 
 .text._ZN10tetgenmesh13makeshellfaceEPNS_10memorypoolEPNS_4faceE
                0x0000000000429e7a      0x1b2 tetgen-tetgen.o
                0x0000000000429e7a                _ZN10tetgenmesh13makeshellfaceEPNS_10memorypoolEPNS_4faceE
 .text._ZN10tetgenmesh9makepointEPPd
                0x000000000042a02c      0x207 tetgen-tetgen.o
                0x000000000042a02c                _ZN10tetgenmesh9makepointEPPd
 *fill*         0x000000000042a233        0x1 
 .text._ZN10tetgenmesh12randomnationEj
                0x000000000042a234       0x81 tetgen-tetgen.o
                0x000000000042a234                _ZN10tetgenmesh12randomnationEj
 *fill*         0x000000000042a2b5        0x1 
 .text._ZN10tetgenmesh9distance2EPPPdS0_
                0x000000000042a2b6      0x18d tetgen-tetgen.o
                0x000000000042a2b6                _ZN10tetgenmesh9distance2EPPPdS0_
 *fill*         0x000000000042a443        0x1 
 .text._ZN10tetgenmesh13preciselocateEPdPNS_7trifaceEl
                0x000000000042a444      0x584 tetgen-tetgen.o
                0x000000000042a444                _ZN10tetgenmesh13preciselocateEPdPNS_7trifaceEl
 .text._ZN10tetgenmesh6locateEPdPNS_7trifaceE
                0x000000000042a9c8      0x3d6 tetgen-tetgen.o
                0x000000000042a9c8                _ZN10tetgenmesh6locateEPdPNS_7trifaceE
 .text._ZN10tetgenmesh12adjustlocateEPdPNS_7trifaceENS_12locateresultEd
                0x000000000042ad9e      0x616 tetgen-tetgen.o
                0x000000000042ad9e                _ZN10tetgenmesh12adjustlocateEPdPNS_7trifaceENS_12locateresultEd
 .text._ZN10tetgenmesh9locatesubEPdPNS_4faceEid
                0x000000000042b3b4      0x859 tetgen-tetgen.o
                0x000000000042b3b4                _ZN10tetgenmesh9locatesubEPdPNS_4faceEid
 *fill*         0x000000000042bc0d        0x1 
 .text._ZN10tetgenmesh15adjustlocatesubEPdPNS_4faceENS_12locateresultEd
                0x000000000042bc0e      0x19a tetgen-tetgen.o
                0x000000000042bc0e                _ZN10tetgenmesh15adjustlocatesubEPdPNS_4faceENS_12locateresultEd
 .text._ZN10tetgenmesh9locatesegEPdPNS_4faceE
                0x000000000042bda8      0x5c1 tetgen-tetgen.o
                0x000000000042bda8                _ZN10tetgenmesh9locatesegEPdPNS_4faceE
 *fill*         0x000000000042c369        0x1 
 .text._ZN10tetgenmesh15adjustlocatesegEPdPNS_4faceENS_12locateresultEd
                0x000000000042c36a      0x112 tetgen-tetgen.o
                0x000000000042c36a                _ZN10tetgenmesh15adjustlocatesegEPdPNS_4faceENS_12locateresultEd
 .text._ZN10tetgenmesh14categorizefaceERNS_7trifaceE
                0x000000000042c47c     0x1a2e tetgen-tetgen.o
                0x000000000042c47c                _ZN10tetgenmesh14categorizefaceERNS_7trifaceE
 .text._ZN10tetgenmesh15enqueueflipfaceERNS_7trifaceEPNS_5queueE
                0x000000000042deaa       0x8f tetgen-tetgen.o
                0x000000000042deaa                _ZN10tetgenmesh15enqueueflipfaceERNS_7trifaceEPNS_5queueE
 *fill*         0x000000000042df39        0x1 
 .text._ZN10tetgenmesh15enqueueflipedgeERNS_4faceEPNS_5queueE
                0x000000000042df3a       0x78 tetgen-tetgen.o
                0x000000000042df3a                _ZN10tetgenmesh15enqueueflipedgeERNS_4faceEPNS_5queueE
 .text._ZN10tetgenmesh6flip23EPNS_7trifaceEPNS_5queueE
                0x000000000042dfb2      0xee7 tetgen-tetgen.o
                0x000000000042dfb2                _ZN10tetgenmesh6flip23EPNS_7trifaceEPNS_5queueE
 *fill*         0x000000000042ee99        0x1 
 .text._ZN10tetgenmesh6flip32EPNS_7trifaceEPNS_5queueE
                0x000000000042ee9a      0xcc0 tetgen-tetgen.o
                0x000000000042ee9a                _ZN10tetgenmesh6flip32EPNS_7trifaceEPNS_5queueE
 .text._ZN10tetgenmesh6flip22EPNS_7trifaceEPNS_5queueE
                0x000000000042fb5a     0x127d tetgen-tetgen.o
                0x000000000042fb5a                _ZN10tetgenmesh6flip22EPNS_7trifaceEPNS_5queueE
 *fill*         0x0000000000430dd7        0x1 
 .text._ZN10tetgenmesh9flip22subEPNS_4faceEPNS_5queueE
                0x0000000000430dd8      0xc1e tetgen-tetgen.o
                0x0000000000430dd8                _ZN10tetgenmesh9flip22subEPNS_4faceEPNS_5queueE
 .text._ZN10tetgenmesh4flipEPNS_5queueEPPNS_7badfaceE
                0x00000000004319f6      0x760 tetgen-tetgen.o
                0x00000000004319f6                _ZN10tetgenmesh4flipEPNS_5queueEPPNS_7badfaceE
 .text._ZN10tetgenmesh7flipsubEPNS_5queueE
                0x0000000000432156      0x74f tetgen-tetgen.o
                0x0000000000432156                _ZN10tetgenmesh7flipsubEPNS_5queueE
 *fill*         0x00000000004328a5        0x1 
 .text._ZN10tetgenmesh16splittetrahedronEPdPNS_7trifaceEPNS_5queueE
                0x00000000004328a6      0xa5d tetgen-tetgen.o
                0x00000000004328a6                _ZN10tetgenmesh16splittetrahedronEPdPNS_7trifaceEPNS_5queueE
 *fill*         0x0000000000433303        0x1 
 .text._ZN10tetgenmesh12splittetfaceEPdPNS_7trifaceEPNS_5queueE
                0x0000000000433304     0x120d tetgen-tetgen.o
                0x0000000000433304                _ZN10tetgenmesh12splittetfaceEPdPNS_7trifaceEPNS_5queueE
 *fill*         0x0000000000434511        0x1 
 .text._ZN10tetgenmesh12splitsubfaceEPdPNS_4faceEPNS_5queueE
                0x0000000000434512      0xe22 tetgen-tetgen.o
                0x0000000000434512                _ZN10tetgenmesh12splitsubfaceEPdPNS_4faceEPNS_5queueE
 .text._ZN10tetgenmesh12splittetedgeEPdPNS_7trifaceEPNS_5queueE
                0x0000000000435334     0x11d2 tetgen-tetgen.o
                0x0000000000435334                _ZN10tetgenmesh12splittetedgeEPdPNS_7trifaceEPNS_5queueE
 .text._ZN10tetgenmesh12splitsubedgeEPdPNS_4faceEPNS_5queueE
                0x0000000000436506     0x1566 tetgen-tetgen.o
                0x0000000000436506                _ZN10tetgenmesh12splitsubedgeEPdPNS_4faceEPNS_5queueE
 .text._ZN10tetgenmesh10insertsiteEPdPNS_7trifaceEbPNS_5queueE
                0x0000000000437a6c      0x2c0 tetgen-tetgen.o
                0x0000000000437a6c                _ZN10tetgenmesh10insertsiteEPdPNS_7trifaceEbPNS_5queueE
 .text._ZN10tetgenmesh18formbowatcavitysubEPdPNS_4faceEPNS_4listES4_
                0x0000000000437d2c      0x3ca tetgen-tetgen.o
                0x0000000000437d2c                _ZN10tetgenmesh18formbowatcavitysubEPdPNS_4faceEPNS_4listES4_
 .text._ZN10tetgenmesh19formbowatcavityquadEPdPNS_4listES2_
                0x00000000004380f6      0x2b0 tetgen-tetgen.o
                0x00000000004380f6                _ZN10tetgenmesh19formbowatcavityquadEPdPNS_4listES2_
 .text._ZN10tetgenmesh15formbowatcavityEPdPNS_4faceES2_PiS3_PPNS_4listES6_S6_S6_
                0x00000000004383a6      0x86c tetgen-tetgen.o
                0x00000000004383a6                _ZN10tetgenmesh15formbowatcavityEPdPNS_4faceES2_PiS3_PPNS_4listES6_S6_S6_
 .text._ZN10tetgenmesh18releasebowatcavityEPNS_4faceEiPPNS_4listES4_S4_S4_
                0x0000000000438c12      0x30e tetgen-tetgen.o
                0x0000000000438c12                _ZN10tetgenmesh18releasebowatcavityEPNS_4faceEiPPNS_4listES4_S4_S4_
 .text._ZN10tetgenmesh23validatebowatcavityquadEPdPNS_4listEd
                0x0000000000438f20      0x1b4 tetgen-tetgen.o
                0x0000000000438f20                _ZN10tetgenmesh23validatebowatcavityquadEPdPNS_4listEd
 .text._ZN10tetgenmesh21updatebowatcavityquadEPNS_4listES1_
                0x00000000004390d4      0x224 tetgen-tetgen.o
                0x00000000004390d4                _ZN10tetgenmesh21updatebowatcavityquadEPNS_4listES1_
 .text._ZN10tetgenmesh20updatebowatcavitysubEPNS_4listES1_Pi
                0x00000000004392f8      0x76d tetgen-tetgen.o
                0x00000000004392f8                _ZN10tetgenmesh20updatebowatcavitysubEPNS_4listES1_Pi
 *fill*         0x0000000000439a65        0x1 
 .text._ZN10tetgenmesh15trimbowatcavityEPdPNS_4faceEiPPNS_4listES5_S5_S5_d
                0x0000000000439a66      0x3b5 tetgen-tetgen.o
                0x0000000000439a66                _ZN10tetgenmesh15trimbowatcavityEPdPNS_4faceEiPPNS_4listES5_S5_S5_d
 *fill*         0x0000000000439e1b        0x1 
 .text._ZN10tetgenmesh15bowatinsertsiteEPdPNS_4faceEiPPNS_4listES5_S5_S5_S4_PNS_5queueEbbb
                0x0000000000439e1c     0x2583 tetgen-tetgen.o
                0x0000000000439e1c                _ZN10tetgenmesh15bowatinsertsiteEPdPNS_4faceEiPPNS_4listES5_S5_S5_S4_PNS_5queueEbbb
 *fill*         0x000000000043c39f        0x1 
 .text._ZN10tetgenmesh18formstarpolyhedronEPdPNS_4listES2_b
                0x000000000043c3a0      0x4bd tetgen-tetgen.o
                0x000000000043c3a0                _ZN10tetgenmesh18formstarpolyhedronEPdPNS_4listES2_b
 *fill*         0x000000000043c85d        0x1 
 .text._ZN10tetgenmesh10unifypointEPdPNS_7trifaceENS_12locateresultEd
                0x000000000043c85e      0x3b8 tetgen-tetgen.o
                0x000000000043c85e                _ZN10tetgenmesh10unifypointEPdPNS_7trifaceENS_12locateresultEd
 .text._ZN10tetgenmesh13closeopenfaceEPNS_7trifaceEPNS_5queueE
                0x000000000043cc16      0x47f tetgen-tetgen.o
                0x000000000043cc16                _ZN10tetgenmesh13closeopenfaceEPNS_7trifaceEPNS_5queueE
 *fill*         0x000000000043d095        0x1 
 .text._ZN10tetgenmesh14inserthullsiteEPdPNS_7trifaceEPNS_5queueE
                0x000000000043d096      0x273 tetgen-tetgen.o
                0x000000000043d096                _ZN10tetgenmesh14inserthullsiteEPdPNS_7trifaceEPNS_5queueE
 *fill*         0x000000000043d309        0x1 
 .text._ZN10tetgenmesh16incrflipdelaunayEPNS_7trifaceEPPdlbbdPNS_5queueE
                0x000000000043d30a      0xfa4 tetgen-tetgen.o
                0x000000000043d30a                _ZN10tetgenmesh16incrflipdelaunayEPNS_7trifaceEPPdlbbdPNS_5queueE
 .text._ZN10tetgenmesh5queueD2Ev
                0x000000000043e2ae       0x1a tetgen-tetgen.o
                0x000000000043e2ae                _ZN10tetgenmesh5queueD2Ev
                0x000000000043e2ae                _ZN10tetgenmesh5queueD1Ev
 .text._ZN10tetgenmesh17delaunizeverticesEv
                0x000000000043e2c8      0x1e2 tetgen-tetgen.o
                0x000000000043e2c8                _ZN10tetgenmesh17delaunizeverticesEv
 .text._ZN10tetgenmesh15formstarpolygonEPdPNS_4listES2_
                0x000000000043e4aa      0x471 tetgen-tetgen.o
                0x000000000043e4aa                _ZN10tetgenmesh15formstarpolygonEPdPNS_4listES2_
 *fill*         0x000000000043e91b        0x1 
 .text._ZN10tetgenmesh18getfacetabovepointEPNS_4faceE
                0x000000000043e91c      0xc62 tetgen-tetgen.o
                0x000000000043e91c                _ZN10tetgenmesh18getfacetabovepointEPNS_4faceE
 .text._ZN10tetgenmesh14collectcavsubsEPdPNS_4listE
                0x000000000043f57e      0x2e9 tetgen-tetgen.o
                0x000000000043f57e                _ZN10tetgenmesh14collectcavsubsEPdPNS_4listE
 *fill*         0x000000000043f867        0x1 
 .text._ZN10tetgenmesh18collectvisiblesubsEiPdPNS_4faceEPNS_5queueE
                0x000000000043f868      0x9fe tetgen-tetgen.o
                0x000000000043f868                _ZN10tetgenmesh18collectvisiblesubsEiPdPNS_4faceEPNS_5queueE
 .text._ZN10tetgenmesh19incrflipdelaunaysubEidPNS_4listEiPdPNS_5queueE
                0x0000000000440266      0xa12 tetgen-tetgen.o
                0x0000000000440266                _ZN10tetgenmesh19incrflipdelaunaysubEidPNS_4listEiPdPNS_5queueE
 .text._ZN10tetgenmesh16finddirectionsubEPNS_4faceEPd
                0x0000000000440c78      0x522 tetgen-tetgen.o
                0x0000000000440c78                _ZN10tetgenmesh16finddirectionsubEPNS_4faceEPd
 .text._ZN10tetgenmesh12insertsubsegEPNS_4faceE
                0x000000000044119a      0x297 tetgen-tetgen.o
                0x000000000044119a                _ZN10tetgenmesh12insertsubsegEPNS_4faceE
 *fill*         0x0000000000441431        0x1 
 .text._ZN10tetgenmesh15scoutsegmentsubEPNS_4faceEPd
                0x0000000000441432      0x1ae tetgen-tetgen.o
                0x0000000000441432                _ZN10tetgenmesh15scoutsegmentsubEPNS_4faceEPd
 .text._ZN10tetgenmesh17flipedgerecursiveEPNS_4faceEPNS_5queueE
                0x00000000004415e0      0x218 tetgen-tetgen.o
                0x00000000004415e0                _ZN10tetgenmesh17flipedgerecursiveEPNS_4faceEPNS_5queueE
 .text._ZN10tetgenmesh15constrainededgeEPNS_4faceEPdPNS_5queueE
                0x00000000004417f8      0x224 tetgen-tetgen.o
                0x00000000004417f8                _ZN10tetgenmesh15constrainededgeEPNS_4faceEPdPNS_5queueE
 .text._ZN10tetgenmesh14recoversegmentEPdS0_PNS_5queueE
                0x0000000000441a1c      0x240 tetgen-tetgen.o
                0x0000000000441a1c                _ZN10tetgenmesh14recoversegmentEPdS0_PNS_5queueE
 .text._ZN10tetgenmesh13infecthullsubEPNS_10memorypoolE
                0x0000000000441c5c      0x232 tetgen-tetgen.o
                0x0000000000441c5c                _ZN10tetgenmesh13infecthullsubEPNS_10memorypoolE
 .text._ZN10tetgenmesh9plaguesubEPNS_10memorypoolE
                0x0000000000441e8e      0x2a9 tetgen-tetgen.o
                0x0000000000441e8e                _ZN10tetgenmesh9plaguesubEPNS_10memorypoolE
 *fill*         0x0000000000442137        0x1 
 .text._ZN10tetgenmesh13carveholessubEiPdPNS_10memorypoolE
                0x0000000000442138      0x243 tetgen-tetgen.o
                0x0000000000442138                _ZN10tetgenmesh13carveholessubEiPdPNS_10memorypoolE
 *fill*         0x000000000044237b        0x1 
 .text._ZN10tetgenmesh11triangulateEidPNS_4listES1_iPdPNS_10memorypoolEPNS_5queueE
                0x000000000044237c      0x1cc tetgen-tetgen.o
                0x000000000044237c                _ZN10tetgenmesh11triangulateEidPNS_4listES1_iPdPNS_10memorypoolEPNS_5queueE
 .text._ZN10tetgenmesh15retrievenewsubsEPNS_4listEb
                0x0000000000442548      0x24e tetgen-tetgen.o
                0x0000000000442548                _ZN10tetgenmesh15retrievenewsubsEPNS_4listEb
 .text._ZN10tetgenmesh13unifysegmentsEv
                0x0000000000442796      0x860 tetgen-tetgen.o
                0x0000000000442796                _ZN10tetgenmesh13unifysegmentsEv
 .text._ZN10tetgenmesh11mergefacetsEPNS_5queueE
                0x0000000000442ff6      0x6d6 tetgen-tetgen.o
                0x0000000000442ff6                _ZN10tetgenmesh11mergefacetsEPNS_5queueE
 .text._ZN10tetgenmesh11meshsurfaceEv
                0x00000000004436cc      0x96e tetgen-tetgen.o
                0x00000000004436cc                _ZN10tetgenmesh11meshsurfaceEv
 .text._ZN10tetgenmesh13interecursiveEPPPPdiiddddddPi
                0x000000000044403a      0xd01 tetgen-tetgen.o
                0x000000000044403a                _ZN10tetgenmesh13interecursiveEPPPPdiiddddddPi
 *fill*         0x0000000000444d3b        0x1 
 .text._ZN10tetgenmesh16detectinterfacesEv
                0x0000000000444d3c      0x281 tetgen-tetgen.o
                0x0000000000444d3c                _ZN10tetgenmesh16detectinterfacesEv
 *fill*         0x0000000000444fbd        0x1 
 .text._ZN10tetgenmesh7pbcdataC2Ev
                0x0000000000444fbe       0x40 tetgen-tetgen.o
                0x0000000000444fbe                _ZN10tetgenmesh7pbcdataC2Ev
                0x0000000000444fbe                _ZN10tetgenmesh7pbcdataC1Ev
 .text._ZN10tetgenmesh22createsubpbcgrouptableEv
                0x0000000000444ffe      0x39d tetgen-tetgen.o
                0x0000000000444ffe                _ZN10tetgenmesh22createsubpbcgrouptableEv
 *fill*         0x000000000044539b        0x1 
 .text._ZN10tetgenmesh14getsubpbcgroupEPNS_4faceEPPNS_7pbcdataEPiS5_
                0x000000000044539c       0xfa tetgen-tetgen.o
                0x000000000044539c                _ZN10tetgenmesh14getsubpbcgroupEPNS_4faceEPPNS_7pbcdataEPiS5_
 .text._ZN10tetgenmesh17getsubpbcsympointEPdPNS_4faceES0_S2_
                0x0000000000445496      0x671 tetgen-tetgen.o
                0x0000000000445496                _ZN10tetgenmesh17getsubpbcsympointEPdPNS_4faceES0_S2_
 *fill*         0x0000000000445b07        0x1 
 .text._ZN10tetgenmesh22createsegpbcgrouptableEv
                0x0000000000445b08     0x102d tetgen-tetgen.o
                0x0000000000445b08                _ZN10tetgenmesh22createsegpbcgrouptableEv
 *fill*         0x0000000000446b35        0x1 
 .text._ZN10tetgenmesh17getsegpbcsympointEPdPNS_4faceES0_S2_i
                0x0000000000446b36      0x248 tetgen-tetgen.o
                0x0000000000446b36                _ZN10tetgenmesh17getsegpbcsympointEPdPNS_4faceES0_S2_i
 .text._ZN10tetgenmesh13randgeneratorEd
                0x0000000000446d7e      0x219 tetgen-tetgen.o
                0x0000000000446d7e                _ZN10tetgenmesh13randgeneratorEd
 *fill*         0x0000000000446f97        0x1 
 .text._ZN10tetgenmesh14checksub4cocirEPNS_4faceEdbb
                0x0000000000446f98      0x419 tetgen-tetgen.o
                0x0000000000446f98                _ZN10tetgenmesh14checksub4cocirEPNS_4faceEdbb
 *fill*         0x00000000004473b1        0x1 
 .text._ZN10tetgenmesh13tallcocirsubsEdb
                0x00000000004473b2       0x9a tetgen-tetgen.o
                0x00000000004473b2                _ZN10tetgenmesh13tallcocirsubsEdb
 .text._ZN10tetgenmesh16tallencsegsfsubsEPdPNS_4listE
                0x000000000044744c      0x12c tetgen-tetgen.o
                0x000000000044744c                _ZN10tetgenmesh16tallencsegsfsubsEPdPNS_4listE
 .text._ZN10tetgenmesh16collectflipedgesEPdPNS_4faceEPNS_5queueE
                0x0000000000447578      0x2bc tetgen-tetgen.o
                0x0000000000447578                _ZN10tetgenmesh16collectflipedgesEPdPNS_4faceEPNS_5queueE
 .text._ZN10tetgenmesh20perturbrepairencsegsEPNS_5queueE
                0x0000000000447834      0xb45 tetgen-tetgen.o
                0x0000000000447834                _ZN10tetgenmesh20perturbrepairencsegsEPNS_5queueE
 *fill*         0x0000000000448379        0x1 
 .text._ZN10tetgenmesh20perturbrepairencsubsEPNS_4listEPNS_5queueE
                0x000000000044837a      0xd69 tetgen-tetgen.o
                0x000000000044837a                _ZN10tetgenmesh20perturbrepairencsubsEPNS_4listEPNS_5queueE
 *fill*         0x00000000004490e3        0x1 
 .text._ZN10tetgenmesh19incrperturbverticesEd
                0x00000000004490e4      0x272 tetgen-tetgen.o
                0x00000000004490e4                _ZN10tetgenmesh19incrperturbverticesEd
 .text._ZN10tetgenmesh17markacuteverticesEd
                0x0000000000449356      0x6f4 tetgen-tetgen.o
                0x0000000000449356                _ZN10tetgenmesh17markacuteverticesEd
 .text._ZN10tetgenmesh13finddirectionEPNS_7trifaceEPdl
                0x0000000000449a4a      0x65f tetgen-tetgen.o
                0x0000000000449a4a                _ZN10tetgenmesh13finddirectionEPNS_7trifaceEPdl
 *fill*         0x000000000044a0a9        0x1 
 .text._ZN10tetgenmesh12getsearchtetEPdS0_PNS_7trifaceEPS0_
                0x000000000044a0aa      0x2b3 tetgen-tetgen.o
                0x000000000044a0aa                _ZN10tetgenmesh12getsearchtetEPdS0_PNS_7trifaceEPS0_
 *fill*         0x000000000044a35d        0x1 
 .text._ZN10tetgenmesh16isedgeencroachedEPdS0_S0_b
                0x000000000044a35e      0x113 tetgen-tetgen.o
                0x000000000044a35e                _ZN10tetgenmesh16isedgeencroachedEPdS0_S0_b
 *fill*         0x000000000044a471        0x1 
 .text._ZN10tetgenmesh13scoutrefpointEPNS_7trifaceEPd
                0x000000000044a472      0x6bb tetgen-tetgen.o
                0x000000000044a472                _ZN10tetgenmesh13scoutrefpointEPNS_7trifaceEPd
 *fill*         0x000000000044ab2d        0x1 
 .text._ZN10tetgenmesh16getsegmentoriginEPNS_4faceE
                0x000000000044ab2e      0x1ed tetgen-tetgen.o
                0x000000000044ab2e                _ZN10tetgenmesh16getsegmentoriginEPNS_4faceE
 *fill*         0x000000000044ad1b        0x1 
 .text._ZN10tetgenmesh13getsplitpointEPNS_4faceEPd
                0x000000000044ad1c      0xbd9 tetgen-tetgen.o
                0x000000000044ad1c                _ZN10tetgenmesh13getsplitpointEPNS_4faceEPd
 *fill*         0x000000000044b8f5        0x1 
 .text._ZN10tetgenmesh17delaunizesegmentsEv
                0x000000000044b8f6      0xb37 tetgen-tetgen.o
                0x000000000044b8f6                _ZN10tetgenmesh17delaunizesegmentsEv
 *fill*         0x000000000044c42d        0x1 
 .text._ZN10tetgenmesh13insertsubfaceEPNS_4faceEPNS_7trifaceE
                0x000000000044c42e      0x41c tetgen-tetgen.o
                0x000000000044c42e                _ZN10tetgenmesh13insertsubfaceEPNS_4faceEPNS_7trifaceE
 .text._ZN10tetgenmesh10tritritestEPNS_7trifaceEPdS2_S2_
                0x000000000044c84a      0x3a4 tetgen-tetgen.o
                0x000000000044c84a                _ZN10tetgenmesh10tritritestEPNS_7trifaceEPdS2_S2_
 .text._ZN10tetgenmesh16initializecavityEPNS_4listES1_S1_
                0x000000000044cbee      0x407 tetgen-tetgen.o
                0x000000000044cbee                _ZN10tetgenmesh16initializecavityEPNS_4listES1_S1_
 *fill*         0x000000000044cff5        0x1 
 .text._ZN10tetgenmesh15retrievenewtetsEPNS_4listE
                0x000000000044cff6      0x1f9 tetgen-tetgen.o
                0x000000000044cff6                _ZN10tetgenmesh15retrievenewtetsEPNS_4listE
 *fill*         0x000000000044d1ef        0x1 
 .text._ZN10tetgenmesh20delaunizecavverticesEPNS_7trifaceEPNS_4listES3_S3_PNS_5queueE
                0x000000000044d1f0      0x28d tetgen-tetgen.o
                0x000000000044d1f0                _ZN10tetgenmesh20delaunizecavverticesEPNS_7trifaceEPNS_4listES3_S3_PNS_5queueE
 *fill*         0x000000000044d47d        0x1 
 .text._ZN10tetgenmesh16insertauxsubfaceEPNS_7trifaceES1_
                0x000000000044d47e       0xd2 tetgen-tetgen.o
                0x000000000044d47e                _ZN10tetgenmesh16insertauxsubfaceEPNS_7trifaceES1_
 .text._ZN10tetgenmesh10scoutfrontEPNS_7trifaceES1_PNS_4listE
                0x000000000044d550      0x3c7 tetgen-tetgen.o
                0x000000000044d550                _ZN10tetgenmesh10scoutfrontEPNS_7trifaceES1_PNS_4listE
 *fill*         0x000000000044d917        0x1 
 .text._ZN10tetgenmesh10gluefrontsEPNS_7trifaceES1_
                0x000000000044d918      0x2a9 tetgen-tetgen.o
                0x000000000044d918                _ZN10tetgenmesh10gluefrontsEPNS_7trifaceES1_
 *fill*         0x000000000044dbc1        0x1 
 .text._ZN10tetgenmesh14identifyfrontsEPNS_4listES1_S1_
                0x000000000044dbc2      0x4fe tetgen-tetgen.o
                0x000000000044dbc2                _ZN10tetgenmesh14identifyfrontsEPNS_4listES1_S1_
 .text._ZN10tetgenmesh17detachauxsubfacesEPNS_4listE
                0x000000000044e0c0      0x1e6 tetgen-tetgen.o
                0x000000000044e0c0                _ZN10tetgenmesh17detachauxsubfacesEPNS_4listE
 .text._ZN10tetgenmesh12expandcavityEPNS_4listES1_S1_S1_PNS_5queueES3_
                0x000000000044e2a6      0xced tetgen-tetgen.o
                0x000000000044e2a6                _ZN10tetgenmesh12expandcavityEPNS_4listES1_S1_S1_PNS_5queueES3_
 *fill*         0x000000000044ef93        0x1 
 .text._ZN10tetgenmesh11carvecavityEPNS_4listES1_PNS_5queueE
                0x000000000044ef94      0x95b tetgen-tetgen.o
                0x000000000044ef94                _ZN10tetgenmesh11carvecavityEPNS_4listES1_PNS_5queueE
 *fill*         0x000000000044f8ef        0x1 
 .text._ZN10tetgenmesh15delaunizecavityEPNS_4listES1_S1_S1_S1_S1_S1_S1_PNS_5queueES3_
                0x000000000044f8f0      0x1ed tetgen-tetgen.o
                0x000000000044f8f0                _ZN10tetgenmesh15delaunizecavityEPNS_4listES1_S1_S1_S1_S1_S1_S1_PNS_5queueES3_
 *fill*         0x000000000044fadd        0x1 
 .text._ZN10tetgenmesh17formmissingregionEPNS_4faceEPNS_4listES3_Pi
                0x000000000044fade      0x418 tetgen-tetgen.o
                0x000000000044fade                _ZN10tetgenmesh17formmissingregionEPNS_4faceEPNS_4listES3_Pi
 .text._ZN10tetgenmesh17rearrangesubfacesEPNS_4listES1_S1_Pi
                0x000000000044fef6     0x147f tetgen-tetgen.o
                0x000000000044fef6                _ZN10tetgenmesh17rearrangesubfacesEPNS_4listES1_S1_Pi
 *fill*         0x0000000000451375        0x1 
 .text._ZN10tetgenmesh17scoutcrossingedgeEPNS_4listES1_S1_Pi
                0x0000000000451376      0x77a tetgen-tetgen.o
                0x0000000000451376                _ZN10tetgenmesh17scoutcrossingedgeEPNS_4listES1_S1_Pi
 .text._ZN10tetgenmesh10formcavityEPNS_4listES1_S1_S1_S1_S1_S1_S1_S1_S1_PNS_5queueEPi
                0x0000000000451af0     0x158a tetgen-tetgen.o
                0x0000000000451af0                _ZN10tetgenmesh10formcavityEPNS_4listES1_S1_S1_S1_S1_S1_S1_S1_S1_PNS_5queueEPi
 .text._ZN10tetgenmesh17insertallsubfacesEPNS_5queueE
                0x000000000045307a      0x17d tetgen-tetgen.o
                0x000000000045307a                _ZN10tetgenmesh17insertallsubfacesEPNS_5queueE
 *fill*         0x00000000004531f7        0x1 
 .text._ZN10tetgenmesh17constrainedfacetsEv
                0x00000000004531f8      0xcf8 tetgen-tetgen.o
                0x00000000004531f8                _ZN10tetgenmesh17constrainedfacetsEv
 .text._ZN10tetgenmesh10infecthullEPNS_10memorypoolE
                0x0000000000453ef0      0x187 tetgen-tetgen.o
                0x0000000000453ef0                _ZN10tetgenmesh10infecthullEPNS_10memorypoolE
 *fill*         0x0000000000454077        0x1 
 .text._ZN10tetgenmesh6plagueEPNS_10memorypoolE
                0x0000000000454078      0x5f1 tetgen-tetgen.o
                0x0000000000454078                _ZN10tetgenmesh6plagueEPNS_10memorypoolE
 *fill*         0x0000000000454669        0x1 
 .text._ZN10tetgenmesh12regionplagueEPNS_10memorypoolEdd
                0x000000000045466a      0x274 tetgen-tetgen.o
                0x000000000045466a                _ZN10tetgenmesh12regionplagueEPNS_10memorypoolEdd
 .text._ZN10tetgenmesh14removeholetetsEPNS_10memorypoolE
                0x00000000004548de      0x33f tetgen-tetgen.o
                0x00000000004548de                _ZN10tetgenmesh14removeholetetsEPNS_10memorypoolE
 *fill*         0x0000000000454c1d        0x1 
 .text._ZN10tetgenmesh19assignregionattribsEv
                0x0000000000454c1e      0x7b7 tetgen-tetgen.o
                0x0000000000454c1e                _ZN10tetgenmesh19assignregionattribsEv
 *fill*         0x00000000004553d5        0x1 
 .text._ZN10tetgenmesh10carveholesEv
                0x00000000004553d6      0x9b4 tetgen-tetgen.o
                0x00000000004553d6                _ZN10tetgenmesh10carveholesEv
 .text._ZN10tetgenmesh18replacepolygonsubsEPNS_4listES1_
                0x0000000000455d8a      0x460 tetgen-tetgen.o
                0x0000000000455d8a                _ZN10tetgenmesh18replacepolygonsubsEPNS_4listES1_
 .text._ZN10tetgenmesh13orientnewsubsEPNS_4listEPNS_4faceEPd
                0x00000000004561ea      0x227 tetgen-tetgen.o
                0x00000000004561ea                _ZN10tetgenmesh13orientnewsubsEPNS_4listEPNS_4faceEPd
 *fill*         0x0000000000456411        0x1 
 .text._ZN10tetgenmesh15constrainedflipEPNS_7trifaceES1_PNS_5queueE
                0x0000000000456412      0x906 tetgen-tetgen.o
                0x0000000000456412                _ZN10tetgenmesh15constrainedflipEPNS_7trifaceES1_PNS_5queueE
 .text._ZN10tetgenmesh12recoverfrontEPNS_7trifaceEPNS_4listEPNS_5queueE
                0x0000000000456d18     0x103a tetgen-tetgen.o
                0x0000000000456d18                _ZN10tetgenmesh12recoverfrontEPNS_7trifaceEPNS_4listEPNS_5queueE
 .text._ZN10tetgenmesh11repairflipsEPNS_5queueE
                0x0000000000457d52      0x747 tetgen-tetgen.o
                0x0000000000457d52                _ZN10tetgenmesh11repairflipsEPNS_5queueE
 *fill*         0x0000000000458499        0x1 
 .text._ZN10tetgenmesh17constrainedcavityEPNS_7trifaceEPNS_4listES3_S3_S3_S3_S3_PNS_5queueE
                0x000000000045849a      0x46b tetgen-tetgen.o
                0x000000000045849a                _ZN10tetgenmesh17constrainedcavityEPNS_7trifaceEPNS_4listES3_S3_S3_S3_S3_PNS_5queueE
 *fill*         0x0000000000458905        0x1 
 .text._ZN10tetgenmesh19expandsteinercavityEPddPNS_4listES2_
                0x0000000000458906      0x7f5 tetgen-tetgen.o
                0x0000000000458906                _ZN10tetgenmesh19expandsteinercavityEPddPNS_4listES2_
 *fill*         0x00000000004590fb        0x1 
 .text._ZN10tetgenmesh17findrelocatepointEPdS0_S0_PNS_4listES2_
                0x00000000004590fc      0x8b4 tetgen-tetgen.o
                0x00000000004590fc                _ZN10tetgenmesh17findrelocatepointEPdS0_S0_PNS_4listES2_
 .text._ZN10tetgenmesh13relocatepointEPdPNS_7trifaceEPNS_4listES4_PNS_5queueE
                0x00000000004599b0      0x9c8 tetgen-tetgen.o
                0x00000000004599b0                _ZN10tetgenmesh13relocatepointEPdPNS_7trifaceEPNS_4listES4_PNS_5queueE
 .text._ZN10tetgenmesh15deallocfaketetsEPNS_4listE
                0x000000000045a378      0x26c tetgen-tetgen.o
                0x000000000045a378                _ZN10tetgenmesh15deallocfaketetsEPNS_4listE
 .text._ZN10tetgenmesh17restorepolyhedronEPNS_4listE
                0x000000000045a5e4      0x201 tetgen-tetgen.o
                0x000000000045a5e4                _ZN10tetgenmesh17restorepolyhedronEPNS_4listE
 *fill*         0x000000000045a7e5        0x1 
 .text._ZN10tetgenmesh18suppressfacetpointEPNS_4faceEPNS_4listES3_S3_S3_PNS_10memorypoolEPNS_5queueE
                0x000000000045a7e6      0xe6a tetgen-tetgen.o
                0x000000000045a7e6                _ZN10tetgenmesh18suppressfacetpointEPNS_4faceEPNS_4listES3_S3_S3_PNS_10memorypoolEPNS_5queueE
 .text._ZN10tetgenmesh16suppresssegpointEPNS_4faceEPNS_4listES3_S3_S3_S3_S3_PNS_10memorypoolEPNS_5queueE
                0x000000000045b650     0x23ac tetgen-tetgen.o
                0x000000000045b650                _ZN10tetgenmesh16suppresssegpointEPNS_4faceEPNS_4listES3_S3_S3_S3_S3_PNS_10memorypoolEPNS_5queueE
 .text._ZN10tetgenmesh16suppressvolpointEPdPNS_4listES2_S2_PNS_5queueE
                0x000000000045d9fc      0x548 tetgen-tetgen.o
                0x000000000045d9fc                _ZN10tetgenmesh16suppressvolpointEPdPNS_4listES2_S2_PNS_5queueE
 .text._ZN10tetgenmesh14removesteinersEv
                0x000000000045df44      0xa5e tetgen-tetgen.o
                0x000000000045df44                _ZN10tetgenmesh14removesteinersEv
 .text._ZN10tetgenmesh15reconstructmeshEv
                0x000000000045e9a2     0x2913 tetgen-tetgen.o
                0x000000000045e9a2                _ZN10tetgenmesh15reconstructmeshEv
 *fill*         0x00000000004612b5        0x1 
 .text._ZN10tetgenmesh9intettestEPdPNS_7trifaceEd
                0x00000000004612b6      0x166 tetgen-tetgen.o
                0x00000000004612b6                _ZN10tetgenmesh9intettestEPdPNS_7trifaceEd
 .text._ZN10tetgenmesh15insertaddpointsEv
                0x000000000046141c      0x5e6 tetgen-tetgen.o
                0x000000000046141c                _ZN10tetgenmesh15insertaddpointsEv
 .text._ZN10tetgenmesh20interpolatepointsizeEPdPNS_7trifaceEPl
                0x0000000000461a02      0x3f4 tetgen-tetgen.o
                0x0000000000461a02                _ZN10tetgenmesh20interpolatepointsizeEPdPNS_7trifaceEPl
 .text._ZN10tetgenmesh20searchpointrecursiveEPNS_7trifaceEPl
                0x0000000000461df6      0x1c1 tetgen-tetgen.o
                0x0000000000461df6                _ZN10tetgenmesh20searchpointrecursiveEPNS_7trifaceEPl
 *fill*         0x0000000000461fb7        0x1 
 .text._ZN10tetgenmesh18interpolatesizemapEv
                0x0000000000461fb8      0x2e9 tetgen-tetgen.o
                0x0000000000461fb8                _ZN10tetgenmesh18interpolatesizemapEv
 *fill*         0x00000000004622a1        0x1 
 .text._ZN10tetgenmesh21calclocalfeaturesizesEv
                0x00000000004622a2      0x9b9 tetgen-tetgen.o
                0x00000000004622a2                _ZN10tetgenmesh21calclocalfeaturesizesEv
 *fill*         0x0000000000462c5b        0x1 
 .text._ZN10tetgenmesh16marksharpsubsegsEd
                0x0000000000462c5c      0x5f3 tetgen-tetgen.o
                0x0000000000462c5c                _ZN10tetgenmesh16marksharpsubsegsEd
 *fill*         0x000000000046324f        0x1 
 .text._ZN10tetgenmesh18markskinnysubfacesEd
                0x0000000000463250      0x4b1 tetgen-tetgen.o
                0x0000000000463250                _ZN10tetgenmesh18markskinnysubfacesEd
 *fill*         0x0000000000463701        0x1 
 .text._ZN10tetgenmesh13enqueueencsubEPNS_4faceEPdiS2_
                0x0000000000463702      0x1f3 tetgen-tetgen.o
                0x0000000000463702                _ZN10tetgenmesh13enqueueencsubEPNS_4faceEPdiS2_
 *fill*         0x00000000004638f5        0x1 
 .text._ZN10tetgenmesh13dequeuebadtetEv
                0x00000000004638f6       0xa8 tetgen-tetgen.o
                0x00000000004638f6                _ZN10tetgenmesh13dequeuebadtetEv
 .text._ZN10tetgenmesh13dequeueencsubEPi
                0x000000000046399e       0xb6 tetgen-tetgen.o
                0x000000000046399e                _ZN10tetgenmesh13dequeueencsubEPi
 .text._ZN10tetgenmesh17checkseg4encroachEPNS_4faceEPdPS2_b
                0x0000000000463a54      0x51a tetgen-tetgen.o
                0x0000000000463a54                _ZN10tetgenmesh17checkseg4encroachEPNS_4faceEPdPS2_b
 .text._ZN10tetgenmesh17checksub4encroachEPNS_4faceEPdb
                0x0000000000463f6e      0x37f tetgen-tetgen.o
                0x0000000000463f6e                _ZN10tetgenmesh17checksub4encroachEPNS_4faceEPdb
 *fill*         0x00000000004642ed        0x1 
 .text._ZN10tetgenmesh16checkseg4badqualEPNS_4faceEb
                0x00000000004642ee      0x161 tetgen-tetgen.o
                0x00000000004642ee                _ZN10tetgenmesh16checkseg4badqualEPNS_4faceEb
 *fill*         0x000000000046444f        0x1 
 .text._ZN10tetgenmesh16checksub4badqualEPNS_4faceEb
                0x0000000000464450      0x72a tetgen-tetgen.o
                0x0000000000464450                _ZN10tetgenmesh16checksub4badqualEPNS_4faceEb
 .text._ZN10tetgenmesh16checktet4badqualEPNS_7trifaceEb
                0x0000000000464b7a     0x16c7 tetgen-tetgen.o
                0x0000000000464b7a                _ZN10tetgenmesh16checktet4badqualEPNS_7trifaceEb
 *fill*         0x0000000000466241        0x1 
 .text._ZN10tetgenmesh11acceptsegptEPdS0_PNS_4faceE
                0x0000000000466242      0x68d tetgen-tetgen.o
                0x0000000000466242                _ZN10tetgenmesh11acceptsegptEPdS0_PNS_4faceE
 *fill*         0x00000000004668cf        0x1 
 .text._ZN10tetgenmesh11acceptfacptEPdPNS_4listES2_
                0x00000000004668d0      0x78f tetgen-tetgen.o
                0x00000000004668d0                _ZN10tetgenmesh11acceptfacptEPdPNS_4listES2_
 *fill*         0x000000000046705f        0x1 
 .text._ZN10tetgenmesh11acceptvolptEPdPNS_4listES2_
                0x0000000000467060      0x419 tetgen-tetgen.o
                0x0000000000467060                _ZN10tetgenmesh11acceptvolptEPdPNS_4listES2_
 *fill*         0x0000000000467479        0x1 
 .text._ZN10tetgenmesh13getsplitpointEPdS0_S0_S0_
                0x000000000046747a      0x542 tetgen-tetgen.o
                0x000000000046747a                _ZN10tetgenmesh13getsplitpointEPdS0_S0_S0_
 .text._ZN10tetgenmesh18shepardinterpolateEPdPNS_4listE
                0x00000000004679bc      0x24f tetgen-tetgen.o
                0x00000000004679bc                _ZN10tetgenmesh18shepardinterpolateEPdPNS_4listE
 *fill*         0x0000000000467c0b        0x1 
 .text._ZN10tetgenmesh15setnewpointsizeEPdPNS_4listE
                0x0000000000467c0c       0xa4 tetgen-tetgen.o
                0x0000000000467c0c                _ZN10tetgenmesh15setnewpointsizeEPdPNS_4listE
 .text._ZN10tetgenmesh11splitencsegEPdPNS_4faceEPNS_4listES4_S4_PNS_5queueEbb
                0x0000000000467cb0      0x496 tetgen-tetgen.o
                0x0000000000467cb0                _ZN10tetgenmesh11splitencsegEPdPNS_4faceEPNS_4listES4_S4_PNS_5queueEbb
 .text._ZN10tetgenmesh11tallencsegsEPdiPPNS_4listE
                0x0000000000468146      0x300 tetgen-tetgen.o
                0x0000000000468146                _ZN10tetgenmesh11tallencsegsEPdiPPNS_4listE
 .text._ZN10tetgenmesh11tallencsubsEPdiPPNS_4listE
                0x0000000000468446      0x2c0 tetgen-tetgen.o
                0x0000000000468446                _ZN10tetgenmesh11tallencsubsEPdiPPNS_4listE
 .text._ZN10tetgenmesh19tallbadtetrahedronsEv
                0x0000000000468706       0x6d tetgen-tetgen.o
                0x0000000000468706                _ZN10tetgenmesh19tallbadtetrahedronsEv
 *fill*         0x0000000000468773        0x1 
 .text._ZN10tetgenmesh13repairencsegsEbb
                0x0000000000468774      0xca9 tetgen-tetgen.o
                0x0000000000468774                _ZN10tetgenmesh13repairencsegsEbb
 *fill*         0x000000000046941d        0x1 
 .text._ZN10tetgenmesh13repairencsubsEb
                0x000000000046941e      0xeb0 tetgen-tetgen.o
                0x000000000046941e                _ZN10tetgenmesh13repairencsubsEb
 .text._ZN10tetgenmesh13repairbadtetsEv
                0x000000000046a2ce      0x73e tetgen-tetgen.o
                0x000000000046a2ce                _ZN10tetgenmesh13repairbadtetsEv
 .text._ZN10tetgenmesh14enforcequalityEv
                0x000000000046aa0c      0x567 tetgen-tetgen.o
                0x000000000046aa0c                _ZN10tetgenmesh14enforcequalityEv
 *fill*         0x000000000046af73        0x1 
 .text._ZN10tetgenmesh12checktet4illEPNS_7trifaceEb
                0x000000000046af74      0x33a tetgen-tetgen.o
                0x000000000046af74                _ZN10tetgenmesh12checktet4illEPNS_7trifaceEb
 .text._ZN10tetgenmesh15checktet4sliverEPNS_7trifaceEbb
                0x000000000046b2ae      0x725 tetgen-tetgen.o
                0x000000000046b2ae                _ZN10tetgenmesh15checktet4sliverEPNS_7trifaceEbb
 *fill*         0x000000000046b9d3        0x1 
 .text._ZN10tetgenmesh19removetetbystripoffEPNS_7trifaceE
                0x000000000046b9d4      0x2e1 tetgen-tetgen.o
                0x000000000046b9d4                _ZN10tetgenmesh19removetetbystripoffEPNS_7trifaceE
 *fill*         0x000000000046bcb5        0x1 
 .text._ZN10tetgenmesh17removetetbyflip32EPNS_7trifaceEbb
                0x000000000046bcb6      0x880 tetgen-tetgen.o
                0x000000000046bcb6                _ZN10tetgenmesh17removetetbyflip32EPNS_7trifaceEbb
 .text._ZN10tetgenmesh16removetetbyreconEPNS_7badfaceEb
                0x000000000046c536      0x454 tetgen-tetgen.o
                0x000000000046c536                _ZN10tetgenmesh16removetetbyreconEPNS_7badfaceEb
 .text._ZN10tetgenmesh16removetetbysplitEPNS_7badfaceE
                0x000000000046c98a     0x11fd tetgen-tetgen.o
                0x000000000046c98a                _ZN10tetgenmesh16removetetbysplitEPNS_7badfaceE
 *fill*         0x000000000046db87        0x1 
 .text._ZN10tetgenmesh11tallsliversEb
                0x000000000046db88       0xb5 tetgen-tetgen.o
                0x000000000046db88                _ZN10tetgenmesh11tallsliversEb
 *fill*         0x000000000046dc3d        0x1 
 .text._ZN10tetgenmesh10repairmeshEv
                0x000000000046dc3e      0x3d5 tetgen-tetgen.o
                0x000000000046dc3e                _ZN10tetgenmesh10repairmeshEv
 *fill*         0x000000000046e013        0x1 
 .text._ZN10tetgenmesh10smoothmeshEv
                0x000000000046e014      0x7e1 tetgen-tetgen.o
                0x000000000046e014                _ZN10tetgenmesh10smoothmeshEv
 *fill*         0x000000000046e7f5        0x1 
 .text._ZN10tetgenmesh13transfernodesEv
                0x000000000046e7f6      0x3ec tetgen-tetgen.o
                0x000000000046e7f6                _ZN10tetgenmesh13transfernodesEv
 .text._ZN10tetgenmesh13jettisonnodesEv
                0x000000000046ebe2      0x1fe tetgen-tetgen.o
                0x000000000046ebe2                _ZN10tetgenmesh13jettisonnodesEv
 .text._ZN10tetgenmesh9highorderEv
                0x000000000046ede0      0x641 tetgen-tetgen.o
                0x000000000046ede0                _ZN10tetgenmesh9highorderEv
 *fill*         0x000000000046f421        0x1 
 .text._ZN10tetgenmesh8outnodesEP8tetgenio
                0x000000000046f422      0xbd8 tetgen-tetgen.o
                0x000000000046f422                _ZN10tetgenmesh8outnodesEP8tetgenio
 .text._ZN10tetgenmesh10outmetricsEP8tetgenio
                0x000000000046fffa      0x3f2 tetgen-tetgen.o
                0x000000000046fffa                _ZN10tetgenmesh10outmetricsEP8tetgenio
 .text._ZN10tetgenmesh11outelementsEP8tetgenio
                0x00000000004703ec      0xb74 tetgen-tetgen.o
                0x00000000004703ec                _ZN10tetgenmesh11outelementsEP8tetgenio
 .text._ZN10tetgenmesh8outfacesEP8tetgenio
                0x0000000000470f60      0x808 tetgen-tetgen.o
                0x0000000000470f60                _ZN10tetgenmesh8outfacesEP8tetgenio
 .text._ZN10tetgenmesh12outhullfacesEP8tetgenio
                0x0000000000471768      0x5ab tetgen-tetgen.o
                0x0000000000471768                _ZN10tetgenmesh12outhullfacesEP8tetgenio
 *fill*         0x0000000000471d13        0x1 
 .text._ZN10tetgenmesh11outsubfacesEP8tetgenio
                0x0000000000471d14      0xa47 tetgen-tetgen.o
                0x0000000000471d14                _ZN10tetgenmesh11outsubfacesEP8tetgenio
 *fill*         0x000000000047275b        0x1 
 .text._ZN10tetgenmesh14outsubsegmentsEP8tetgenio
                0x000000000047275c      0x4a7 tetgen-tetgen.o
                0x000000000047275c                _ZN10tetgenmesh14outsubsegmentsEP8tetgenio
 *fill*         0x0000000000472c03        0x1 
 .text._ZN10tetgenmesh12outneighborsEP8tetgenio
                0x0000000000472c04      0x541 tetgen-tetgen.o
                0x0000000000472c04                _ZN10tetgenmesh12outneighborsEP8tetgenio
 *fill*         0x0000000000473145        0x1 
 .text._ZN10tetgenmesh11outpbcnodesEP8tetgenio
                0x0000000000473146      0xf03 tetgen-tetgen.o
                0x0000000000473146                _ZN10tetgenmesh11outpbcnodesEP8tetgenio
 *fill*         0x0000000000474049        0x1 
 .text._ZN10tetgenmesh8outsmeshEPc
                0x000000000047404a      0x89a tetgen-tetgen.o
                0x000000000047404a                _ZN10tetgenmesh8outsmeshEPc
 .text._ZN10tetgenmesh13outmesh2meditEPc
                0x00000000004748e4      0xa98 tetgen-tetgen.o
                0x00000000004748e4                _ZN10tetgenmesh13outmesh2meditEPc
 .text._ZN10tetgenmesh11outmesh2gidEPc
                0x000000000047537c      0xb2c tetgen-tetgen.o
                0x000000000047537c                _ZN10tetgenmesh11outmesh2gidEPc
 .text._ZN10tetgenmesh11outmesh2offEPc
                0x0000000000475ea8      0x4d8 tetgen-tetgen.o
                0x0000000000475ea8                _ZN10tetgenmesh11outmesh2offEPc
 .text._ZN10tetgenmesh13internalerrorEv
                0x0000000000476380       0x36 tetgen-tetgen.o
                0x0000000000476380                _ZN10tetgenmesh13internalerrorEv
 .text._ZN10tetgenmesh9checkmeshEv
                0x00000000004763b6      0x2c0 tetgen-tetgen.o
                0x00000000004763b6                _ZN10tetgenmesh9checkmeshEv
 .text._ZN10tetgenmesh11checkshellsEv
                0x0000000000476676      0xe3d tetgen-tetgen.o
                0x0000000000476676                _ZN10tetgenmesh11checkshellsEv
 *fill*         0x00000000004774b3        0x1 
 .text._ZN10tetgenmesh13checkdelaunayEdPNS_5queueE
                0x00000000004774b4      0x491 tetgen-tetgen.o
                0x00000000004774b4                _ZN10tetgenmesh13checkdelaunayEdPNS_5queueE
 *fill*         0x0000000000477945        0x1 
 .text._ZN10tetgenmesh15checkconformingEv
                0x0000000000477946      0x29e tetgen-tetgen.o
                0x0000000000477946                _ZN10tetgenmesh15checkconformingEv
 .text._ZN10tetgenmesh17qualitystatisticsEv
                0x0000000000477be4     0x1c4e tetgen-tetgen.o
                0x0000000000477be4                _ZN10tetgenmesh17qualitystatisticsEv
 .text._ZN10tetgenmesh10statisticsEv
                0x0000000000479832      0x20b tetgen-tetgen.o
                0x0000000000479832                _ZN10tetgenmesh10statisticsEv
 *fill*         0x0000000000479a3d        0x1 
 .text._ZN10tetgenmeshD2Ev
                0x0000000000479a3e      0x239 tetgen-tetgen.o
                0x0000000000479a3e                _ZN10tetgenmeshD1Ev
                0x0000000000479a3e                _ZN10tetgenmeshD2Ev
 *fill*         0x0000000000479c77        0x1 
 .text._ZN10tetgenmeshC2Ev
                0x0000000000479c78      0x533 tetgen-tetgen.o
                0x0000000000479c78                _ZN10tetgenmeshC2Ev
                0x0000000000479c78                _ZN10tetgenmeshC1Ev
 .text._Z14tetrahedralizeP14tetgenbehaviorP8tetgenioS2_S2_
                0x000000000047a1ab      0xe10 tetgen-tetgen.o
                0x000000000047a1ab                _Z14tetrahedralizeP14tetgenbehaviorP8tetgenioS2_S2_
 .text.main     0x000000000047afbb      0x215 tetgen-tetgen.o
                0x000000000047afbb                main
 .text          0x000000000047b1d0       0x72 /usr/lib/x86_64-linux-gnu/libc_nonshared.a(elf-init.oS)
                0x000000000047b1d0                __libc_csu_init
                0x000000000047b240                __libc_csu_fini
 *(.gnu.warning)

.fini           0x000000000047b244        0x9
 *(SORT(.fini))
 .fini          0x000000000047b244        0x4 /usr/lib/gcc/x86_64-linux-gnu/4.8/../../../x86_64-linux-gnu/crti.o
                0x000000000047b244                _fini
 .fini          0x000000000047b248        0x5 /usr/lib/gcc/x86_64-linux-gnu/4.8/../../../x86_64-linux-gnu/crtn.o
                0x000000000047b24d                PROVIDE (__etext, .)
                0x000000000047b24d                PROVIDE (_etext, .)
                0x000000000047b24d                PROVIDE (etext, .)

.rodata         0x000000000047b260     0x9c28
 *(.rodata .rodata.* .gnu.linkonce.r.*)
 .rodata        0x000000000047b260       0xd0 tetgen-predicates.o
 .rodata        0x000000000047b330     0x73a0 tetgen-tetgen.o
 .rodata._ZN8tetgenio8load_plcEPci
                0x00000000004826d0       0x38 tetgen-tetgen.o
 .rodata._ZN10tetgenmesh14tetalldihedralEPdS0_S0_S0_S0_S0_S0_
                0x0000000000482708       0x30 tetgen-tetgen.o
 .rodata._ZN10tetgenmesh4flipEPNS_5queueEPPNS_7badfaceE
                0x0000000000482738       0x40 tetgen-tetgen.o
 .rodata._ZN10tetgenmesh10insertsiteEPdPNS_7trifaceEbPNS_5queueE
                0x0000000000482778       0x28 tetgen-tetgen.o
 .rodata._ZN10tetgenmesh15insertaddpointsEv
                0x00000000004827a0       0x28 tetgen-tetgen.o
 .rodata._ZN10tetgenmesh16checktet4badqualEPNS_7trifaceEb
                0x00000000004827c8       0x30 tetgen-tetgen.o
 .rodata._ZN10tetgenmesh15checktet4sliverEPNS_7trifaceEbb
                0x00000000004827f8       0x30 tetgen-tetgen.o
 .rodata._ZN10tetgenmesh9highorderEv
                0x0000000000482828       0x30 tetgen-tetgen.o
 .rodata._ZN10tetgenmesh13checkdelaunayEdPNS_5queueE
                0x0000000000482858       0x40 tetgen-tetgen.o
 *fill*         0x0000000000482898        0x8 
 .rodata._ZZN8tetgenio9load_polyEPcE19__PRETTY_FUNCTION__
                0x00000000004828a0       0x20 tetgen-tetgen.o
 .rodata._ZZN8tetgenio10load_meditEPcE19__PRETTY_FUNCTION__
                0x00000000004828c0       0x21 tetgen-tetgen.o
 *fill*         0x00000000004828e1       0x1f 
 .rodata._ZZN10tetgenmesh4list8listinitEiPFiPKvS2_EiiE19__PRETTY_FUNCTION__
                0x0000000000482900       0x45 tetgen-tetgen.o
 *fill*         0x0000000000482945       0x1b 
 .rodata._ZZN10tetgenmesh4link8linkinitEiPFiPKvS2_EiE19__PRETTY_FUNCTION__
                0x0000000000482960       0x40 tetgen-tetgen.o
 .rodata._ZZN10tetgenmesh8sstpivotEPNS_4faceEPNS_7trifaceEE19__PRETTY_FUNCTION__
                0x00000000004829a0       0x43 tetgen-tetgen.o
 *fill*         0x00000000004829e3       0x1d 
 .rodata._ZZN10tetgenmesh19edge_edge_cop_interEPdS0_S0_S0_S0_E19__PRETTY_FUNCTION__
                0x0000000000482a00       0x65 tetgen-tetgen.o
 *fill*         0x0000000000482a65       0x1b 
 .rodata._ZZN10tetgenmesh18tri_vert_cop_interEPdS0_S0_S0_S0_E19__PRETTY_FUNCTION__
                0x0000000000482a80       0x64 tetgen-tetgen.o
 *fill*         0x0000000000482ae4       0x1c 
 .rodata._ZZN10tetgenmesh18tri_edge_cop_interEPdS0_S0_S0_S0_S0_E19__PRETTY_FUNCTION__
                0x0000000000482b00       0x6d tetgen-tetgen.o
 *fill*         0x0000000000482b6d       0x13 
 .rodata._ZZN10tetgenmesh19tri_edge_inter_tailEPdS0_S0_S0_S0_ddE19__PRETTY_FUNCTION__
                0x0000000000482b80       0x75 tetgen-tetgen.o
 *fill*         0x0000000000482bf5        0xb 
 .rodata._ZZN10tetgenmesh13tri_tri_interEPdS0_S0_S0_S0_S0_E19__PRETTY_FUNCTION__
                0x0000000000482c00       0x68 tetgen-tetgen.o
 *fill*         0x0000000000482c68       0x18 
 .rodata._ZZN10tetgenmesh10iscoplanarEPdS0_S0_S0_ddE19__PRETTY_FUNCTION__
                0x0000000000482c80       0x50 tetgen-tetgen.o
 *fill*         0x0000000000482cd0       0x10 
 .rodata._ZZN10tetgenmesh11iscosphericEPdS0_S0_S0_S0_ddE19__PRETTY_FUNCTION__
                0x0000000000482ce0       0x5a tetgen-tetgen.o
 *fill*         0x0000000000482d3a        0x6 
 .rodata._ZZN10tetgenmesh13interiorangleEPdS0_S0_S0_E19__PRETTY_FUNCTION__
                0x0000000000482d40       0x45 tetgen-tetgen.o
 *fill*         0x0000000000482d85       0x1b 
 .rodata._ZZN10tetgenmesh11projpt2edgeEPdS0_S0_S0_E19__PRETTY_FUNCTION__
                0x0000000000482da0       0x41 tetgen-tetgen.o
 *fill*         0x0000000000482de1       0x1f 
 .rodata._ZZN10tetgenmesh11projpt2faceEPdS0_S0_S0_S0_E19__PRETTY_FUNCTION__
                0x0000000000482e00       0x4a tetgen-tetgen.o
 *fill*         0x0000000000482e4a       0x16 
 .rodata._ZZN10tetgenmesh13preciselocateEPdPNS_7trifaceElE19__PRETTY_FUNCTION__
                0x0000000000482e60       0x66 tetgen-tetgen.o
 *fill*         0x0000000000482ec6       0x1a 
 .rodata._ZZN10tetgenmesh6locateEPdPNS_7trifaceEE19__PRETTY_FUNCTION__
                0x0000000000482ee0       0x55 tetgen-tetgen.o
 *fill*         0x0000000000482f35        0xb 
 .rodata._ZZN10tetgenmesh9locatesubEPdPNS_4faceEidE19__PRETTY_FUNCTION__
                0x0000000000482f40       0x62 tetgen-tetgen.o
 *fill*         0x0000000000482fa2       0x1e 
 .rodata._ZZN10tetgenmesh15adjustlocatesubEPdPNS_4faceENS_12locateresultEdE19__PRETTY_FUNCTION__
                0x0000000000482fc0       0x7d tetgen-tetgen.o
 *fill*         0x000000000048303d        0x3 
 .rodata._ZZN10tetgenmesh9locatesegEPdPNS_4faceEE19__PRETTY_FUNCTION__
                0x0000000000483040       0x55 tetgen-tetgen.o
 *fill*         0x0000000000483095        0xb 
 .rodata._ZZN10tetgenmesh14categorizefaceERNS_7trifaceEE19__PRETTY_FUNCTION__
                0x00000000004830a0       0x46 tetgen-tetgen.o
 *fill*         0x00000000004830e6       0x1a 
 .rodata._ZZN10tetgenmesh6flip23EPNS_7trifaceEPNS_5queueEE19__PRETTY_FUNCTION__
                0x0000000000483100       0x42 tetgen-tetgen.o
 *fill*         0x0000000000483142       0x1e 
 .rodata._ZZN10tetgenmesh6flip22EPNS_7trifaceEPNS_5queueEE19__PRETTY_FUNCTION__
                0x0000000000483160       0x42 tetgen-tetgen.o
 *fill*         0x00000000004831a2       0x1e 
 .rodata._ZZN10tetgenmesh4flipEPNS_5queueEPPNS_7badfaceEE19__PRETTY_FUNCTION__
                0x00000000004831c0       0x45 tetgen-tetgen.o
 *fill*         0x0000000000483205       0x1b 
 .rodata._ZZN10tetgenmesh12splittetfaceEPdPNS_7trifaceEPNS_5queueEE19__PRETTY_FUNCTION__
                0x0000000000483220       0x5b tetgen-tetgen.o
 *fill*         0x000000000048327b        0x5 
 .rodata._ZZN10tetgenmesh12splitsubfaceEPdPNS_4faceEPNS_5queueEE19__PRETTY_FUNCTION__
                0x0000000000483280       0x58 tetgen-tetgen.o
 *fill*         0x00000000004832d8        0x8 
 .rodata._ZZN10tetgenmesh12splittetedgeEPdPNS_7trifaceEPNS_5queueEE19__PRETTY_FUNCTION__
                0x00000000004832e0       0x5b tetgen-tetgen.o
 *fill*         0x000000000048333b        0x5 
 .rodata._ZZN10tetgenmesh12splitsubedgeEPdPNS_4faceEPNS_5queueEE19__PRETTY_FUNCTION__
                0x0000000000483340       0x58 tetgen-tetgen.o
 *fill*         0x0000000000483398        0x8 
 .rodata._ZZN10tetgenmesh18releasebowatcavityEPNS_4faceEiPPNS_4listES4_S4_S4_E19__PRETTY_FUNCTION__
                0x00000000004833a0       0x8c tetgen-tetgen.o
 *fill*         0x000000000048342c       0x14 
 .rodata._ZZN10tetgenmesh20updatebowatcavitysubEPNS_4listES1_PiE19__PRETTY_FUNCTION__
                0x0000000000483440       0x52 tetgen-tetgen.o
 *fill*         0x0000000000483492        0xe 
 .rodata._ZZN10tetgenmesh15bowatinsertsiteEPdPNS_4faceEiPPNS_4listES5_S5_S5_S4_PNS_5queueEbbbE19__PRETTY_FUNCTION__
                0x00000000004834a0       0xd5 tetgen-tetgen.o
 *fill*         0x0000000000483575        0xb 
 .rodata._ZZN10tetgenmesh18formstarpolyhedronEPdPNS_4listES2_bE19__PRETTY_FUNCTION__
                0x0000000000483580       0x63 tetgen-tetgen.o
 *fill*         0x00000000004835e3       0x1d 
 .rodata._ZZN10tetgenmesh15formstarpolygonEPdPNS_4listES2_E19__PRETTY_FUNCTION__
                0x0000000000483600       0x5a tetgen-tetgen.o
 *fill*         0x000000000048365a        0x6 
 .rodata._ZZN10tetgenmesh18getfacetabovepointEPNS_4faceEE19__PRETTY_FUNCTION__
                0x0000000000483660       0x37 tetgen-tetgen.o
 *fill*         0x0000000000483697        0x9 
 .rodata._ZZN10tetgenmesh18collectvisiblesubsEiPdPNS_4faceEPNS_5queueEE19__PRETTY_FUNCTION__
                0x00000000004836a0       0x63 tetgen-tetgen.o
 *fill*         0x0000000000483703       0x1d 
 .rodata._ZZN10tetgenmesh16finddirectionsubEPNS_4faceEPdE19__PRETTY_FUNCTION__
                0x0000000000483720       0x63 tetgen-tetgen.o
 *fill*         0x0000000000483783       0x1d 
 .rodata._ZZN10tetgenmesh15scoutsegmentsubEPNS_4faceEPdE19__PRETTY_FUNCTION__
                0x00000000004837a0       0x47 tetgen-tetgen.o
 *fill*         0x00000000004837e7       0x19 
 .rodata._ZZN10tetgenmesh17flipedgerecursiveEPNS_4faceEPNS_5queueEE19__PRETTY_FUNCTION__
                0x0000000000483800       0x4a tetgen-tetgen.o
 *fill*         0x000000000048384a       0x16 
 .rodata._ZZN10tetgenmesh15constrainededgeEPNS_4faceEPdPNS_5queueEE19__PRETTY_FUNCTION__
                0x0000000000483860       0x5b tetgen-tetgen.o
 *fill*         0x00000000004838bb        0x5 
 .rodata._ZZN10tetgenmesh15retrievenewsubsEPNS_4listEbE19__PRETTY_FUNCTION__
                0x00000000004838c0       0x3a tetgen-tetgen.o
 *fill*         0x00000000004838fa        0x6 
 .rodata._ZZN10tetgenmesh11meshsurfaceEvE19__PRETTY_FUNCTION__
                0x0000000000483900       0x23 tetgen-tetgen.o
 *fill*         0x0000000000483923       0x1d 
 .rodata._ZZN10tetgenmesh13interecursiveEPPPPdiiddddddPiE19__PRETTY_FUNCTION__
                0x0000000000483940       0x6b tetgen-tetgen.o
 *fill*         0x00000000004839ab       0x15 
 .rodata._ZZN10tetgenmesh14getsubpbcgroupEPNS_4faceEPPNS_7pbcdataEPiS5_E19__PRETTY_FUNCTION__
                0x00000000004839c0       0x56 tetgen-tetgen.o
 *fill*         0x0000000000483a16        0xa 
 .rodata._ZZN10tetgenmesh17getsubpbcsympointEPdPNS_4faceES0_S2_E19__PRETTY_FUNCTION__
                0x0000000000483a20       0x83 tetgen-tetgen.o
 *fill*         0x0000000000483aa3       0x1d 
 .rodata._ZZN10tetgenmesh22createsegpbcgrouptableEvE19__PRETTY_FUNCTION__
                0x0000000000483ac0       0x2a tetgen-tetgen.o
 *fill*         0x0000000000483aea       0x16 
 .rodata._ZZN10tetgenmesh17getsegpbcsympointEPdPNS_4faceES0_S2_iE19__PRETTY_FUNCTION__
                0x0000000000483b00       0x88 tetgen-tetgen.o
 *fill*         0x0000000000483b88       0x18 
 .rodata._ZZN10tetgenmesh13randgeneratorEdE19__PRETTY_FUNCTION__
                0x0000000000483ba0       0x29 tetgen-tetgen.o
 *fill*         0x0000000000483bc9       0x17 
 .rodata._ZZN10tetgenmesh16collectflipedgesEPdPNS_4faceEPNS_5queueEE19__PRETTY_FUNCTION__
                0x0000000000483be0       0x5c tetgen-tetgen.o
 *fill*         0x0000000000483c3c        0x4 
 .rodata._ZZN10tetgenmesh20perturbrepairencsegsEPNS_5queueEE19__PRETTY_FUNCTION__
                0x0000000000483c40       0x3a tetgen-tetgen.o
 *fill*         0x0000000000483c7a        0x6 
 .rodata._ZZN10tetgenmesh20perturbrepairencsubsEPNS_4listEPNS_5queueEE19__PRETTY_FUNCTION__
                0x0000000000483c80       0x4d tetgen-tetgen.o
 *fill*         0x0000000000483ccd       0x13 
 .rodata._ZZN10tetgenmesh17markacuteverticesEdE19__PRETTY_FUNCTION__
                0x0000000000483ce0       0x2b tetgen-tetgen.o
 *fill*         0x0000000000483d0b       0x15 
 .rodata._ZZN10tetgenmesh13finddirectionEPNS_7trifaceEPdlE19__PRETTY_FUNCTION__
                0x0000000000483d20       0x6d tetgen-tetgen.o
 *fill*         0x0000000000483d8d       0x13 
 .rodata._ZZN10tetgenmesh12getsearchtetEPdS0_PNS_7trifaceEPS0_E19__PRETTY_FUNCTION__
                0x0000000000483da0       0x64 tetgen-tetgen.o
 *fill*         0x0000000000483e04       0x1c 
 .rodata._ZZN10tetgenmesh13scoutrefpointEPNS_7trifaceEPdE19__PRETTY_FUNCTION__
                0x0000000000483e20       0x4b tetgen-tetgen.o
 *fill*         0x0000000000483e6b       0x15 
 .rodata._ZZN10tetgenmesh16getsegmentoriginEPNS_4faceEE19__PRETTY_FUNCTION__
                0x0000000000483e80       0x38 tetgen-tetgen.o
 *fill*         0x0000000000483eb8        0x8 
 .rodata._ZZN10tetgenmesh13getsplitpointEPNS_4faceEPdE19__PRETTY_FUNCTION__
                0x0000000000483ec0       0x48 tetgen-tetgen.o
 *fill*         0x0000000000483f08       0x18 
 .rodata._ZZN10tetgenmesh17delaunizesegmentsEvE19__PRETTY_FUNCTION__
                0x0000000000483f20       0x25 tetgen-tetgen.o
 *fill*         0x0000000000483f45       0x1b 
 .rodata._ZZN10tetgenmesh10tritritestEPNS_7trifaceEPdS2_S2_E19__PRETTY_FUNCTION__
                0x0000000000483f60       0x6b tetgen-tetgen.o
 *fill*         0x0000000000483fcb       0x15 
 .rodata._ZZN10tetgenmesh16initializecavityEPNS_4listES1_S1_E19__PRETTY_FUNCTION__
                0x0000000000483fe0       0x5b tetgen-tetgen.o
 *fill*         0x000000000048403b        0x5 
 .rodata._ZZN10tetgenmesh10scoutfrontEPNS_7trifaceES1_PNS_4listEE19__PRETTY_FUNCTION__
                0x0000000000484040       0x5b tetgen-tetgen.o
 *fill*         0x000000000048409b        0x5 
 .rodata._ZZN10tetgenmesh10gluefrontsEPNS_7trifaceES1_E19__PRETTY_FUNCTION__
                0x00000000004840a0       0x48 tetgen-tetgen.o
 *fill*         0x00000000004840e8       0x18 
 .rodata._ZZN10tetgenmesh14identifyfrontsEPNS_4listES1_S1_E19__PRETTY_FUNCTION__
                0x0000000000484100       0x59 tetgen-tetgen.o
 *fill*         0x0000000000484159        0x7 
 .rodata._ZZN10tetgenmesh17detachauxsubfacesEPNS_4listEE19__PRETTY_FUNCTION__
                0x0000000000484160       0x36 tetgen-tetgen.o
 *fill*         0x0000000000484196        0xa 
 .rodata._ZZN10tetgenmesh12expandcavityEPNS_4listES1_S1_S1_PNS_5queueES3_E19__PRETTY_FUNCTION__
                0x00000000004841a0       0x92 tetgen-tetgen.o
 *fill*         0x0000000000484232        0xe 
 .rodata._ZZN10tetgenmesh11carvecavityEPNS_4listES1_PNS_5queueEE19__PRETTY_FUNCTION__
                0x0000000000484240       0x57 tetgen-tetgen.o
 *fill*         0x0000000000484297        0x9 
 .rodata._ZZN10tetgenmesh17rearrangesubfacesEPNS_4listES1_S1_PiE19__PRETTY_FUNCTION__
                0x00000000004842a0       0x62 tetgen-tetgen.o
 *fill*         0x0000000000484302       0x1e 
 .rodata._ZZN10tetgenmesh17scoutcrossingedgeEPNS_4listES1_S1_PiE19__PRETTY_FUNCTION__
                0x0000000000484320       0x62 tetgen-tetgen.o
 *fill*         0x0000000000484382       0x1e 
 .rodata._ZZN10tetgenmesh10formcavityEPNS_4listES1_S1_S1_S1_S1_S1_S1_S1_S1_PNS_5queueEPiE19__PRETTY_FUNCTION__
                0x00000000004843a0       0xf4 tetgen-tetgen.o
 *fill*         0x0000000000484494        0xc 
 .rodata._ZZN10tetgenmesh19assignregionattribsEvE19__PRETTY_FUNCTION__
                0x00000000004844a0       0x27 tetgen-tetgen.o
 *fill*         0x00000000004844c7       0x19 
 .rodata._ZZN10tetgenmesh18replacepolygonsubsEPNS_4listES1_E19__PRETTY_FUNCTION__
                0x00000000004844e0       0x4a tetgen-tetgen.o
 *fill*         0x000000000048452a       0x16 
 .rodata._ZZN10tetgenmesh13orientnewsubsEPNS_4listEPNS_4faceEPdE19__PRETTY_FUNCTION__
                0x0000000000484540       0x4e tetgen-tetgen.o
 *fill*         0x000000000048458e       0x12 
 .rodata._ZZN10tetgenmesh15constrainedflipEPNS_7trifaceES1_PNS_5queueEE19__PRETTY_FUNCTION__
                0x00000000004845a0       0x61 tetgen-tetgen.o
 *fill*         0x0000000000484601       0x1f 
 .rodata._ZZN10tetgenmesh12recoverfrontEPNS_7trifaceEPNS_4listEPNS_5queueEE19__PRETTY_FUNCTION__
                0x0000000000484620       0x5b tetgen-tetgen.o
 *fill*         0x000000000048467b        0x5 
 .rodata._ZZN10tetgenmesh11repairflipsEPNS_5queueEE19__PRETTY_FUNCTION__
                0x0000000000484680       0x31 tetgen-tetgen.o
 *fill*         0x00000000004846b1        0xf 
 .rodata._ZZN10tetgenmesh17constrainedcavityEPNS_7trifaceEPNS_4listES3_S3_S3_S3_S3_PNS_5queueEE19__PRETTY_FUNCTION__
                0x00000000004846c0       0xbf tetgen-tetgen.o
 *fill*         0x000000000048477f        0x1 
 .rodata._ZZN10tetgenmesh19expandsteinercavityEPddPNS_4listES2_E19__PRETTY_FUNCTION__
                0x0000000000484780       0x66 tetgen-tetgen.o
 *fill*         0x00000000004847e6       0x1a 
 .rodata._ZZN10tetgenmesh13relocatepointEPdPNS_7trifaceEPNS_4listES4_PNS_5queueEE19__PRETTY_FUNCTION__
                0x0000000000484800       0x82 tetgen-tetgen.o
 *fill*         0x0000000000484882       0x1e 
 .rodata._ZZN10tetgenmesh17restorepolyhedronEPNS_4listEE19__PRETTY_FUNCTION__
                0x00000000004848a0       0x36 tetgen-tetgen.o
 *fill*         0x00000000004848d6        0xa 
 .rodata._ZZN10tetgenmesh18suppressfacetpointEPNS_4faceEPNS_4listES3_S3_S3_PNS_10memorypoolEPNS_5queueEE19__PRETTY_FUNCTION__
                0x00000000004848e0       0xb0 tetgen-tetgen.o
 *fill*         0x0000000000484990       0x10 
 .rodata._ZZN10tetgenmesh16suppresssegpointEPNS_4faceEPNS_4listES3_S3_S3_S3_S3_PNS_10memorypoolEPNS_5queueEE19__PRETTY_FUNCTION__
                0x00000000004849a0       0xd4 tetgen-tetgen.o
 *fill*         0x0000000000484a74        0xc 
 .rodata._ZZN10tetgenmesh16suppressvolpointEPdPNS_4listES2_S2_PNS_5queueEE19__PRETTY_FUNCTION__
                0x0000000000484a80       0x82 tetgen-tetgen.o
 *fill*         0x0000000000484b02       0x1e 
 .rodata._ZZN10tetgenmesh14removesteinersEvE19__PRETTY_FUNCTION__
                0x0000000000484b20       0x22 tetgen-tetgen.o
 *fill*         0x0000000000484b42       0x1e 
 .rodata._ZZN10tetgenmesh15reconstructmeshEvE19__PRETTY_FUNCTION__
                0x0000000000484b60       0x27 tetgen-tetgen.o
 *fill*         0x0000000000484b87       0x19 
 .rodata._ZZN10tetgenmesh15insertaddpointsEvE19__PRETTY_FUNCTION__
                0x0000000000484ba0       0x23 tetgen-tetgen.o
 *fill*         0x0000000000484bc3       0x1d 
 .rodata._ZZN10tetgenmesh20interpolatepointsizeEPdPNS_7trifaceEPlE19__PRETTY_FUNCTION__
                0x0000000000484be0       0x5a tetgen-tetgen.o
 *fill*         0x0000000000484c3a        0x6 
 .rodata._ZZN10tetgenmesh18interpolatesizemapEvE19__PRETTY_FUNCTION__
                0x0000000000484c40       0x26 tetgen-tetgen.o
 *fill*         0x0000000000484c66       0x1a 
 .rodata._ZZN10tetgenmesh11acceptsegptEPdS0_PNS_4faceEE19__PRETTY_FUNCTION__
                0x0000000000484c80       0x56 tetgen-tetgen.o
 *fill*         0x0000000000484cd6        0xa 
 .rodata._ZZN10tetgenmesh11splitencsegEPdPNS_4faceEPNS_4listES4_S4_PNS_5queueEbbE19__PRETTY_FUNCTION__
                0x0000000000484ce0       0x9c tetgen-tetgen.o
 *fill*         0x0000000000484d7c        0x4 
 .rodata._ZZN10tetgenmesh19removetetbystripoffEPNS_7trifaceEE19__PRETTY_FUNCTION__
                0x0000000000484d80       0x3b tetgen-tetgen.o
 *fill*         0x0000000000484dbb        0x5 
 .rodata._ZZN10tetgenmesh17removetetbyflip32EPNS_7trifaceEbbE19__PRETTY_FUNCTION__
                0x0000000000484dc0       0x45 tetgen-tetgen.o
 *fill*         0x0000000000484e05       0x1b 
 .rodata._ZZN10tetgenmesh8outnodesEP8tetgenioE19__PRETTY_FUNCTION__
                0x0000000000484e20       0x25 tetgen-tetgen.o
 *fill*         0x0000000000484e45       0x1b 
 .rodata._ZZN10tetgenmesh11outpbcnodesEP8tetgenioE19__PRETTY_FUNCTION__
                0x0000000000484e60       0x28 tetgen-tetgen.o

.rodata1
 *(.rodata1)

.eh_frame_hdr   0x0000000000484e88      0xd44
 *(.eh_frame_hdr)
 .eh_frame_hdr  0x0000000000484e88      0xd44 /usr/lib/gcc/x86_64-linux-gnu/4.8/../../../x86_64-linux-gnu/crt1.o

.eh_frame       0x0000000000485bd0     0x3a24
 *(.eh_frame)
 .eh_frame      0x0000000000485bd0       0x30 /usr/lib/gcc/x86_64-linux-gnu/4.8/../../../x86_64-linux-gnu/crt1.o
 .eh_frame      0x0000000000485c00       0x40 /usr/lib/gcc/x86_64-linux-gnu/4.8/../../../x86_64-linux-gnu/crt1.o
 .eh_frame      0x0000000000485c40      0x138 tetgen-predicates.o
                                        0x458 (size before relaxing)
 .eh_frame      0x0000000000485d78     0x3818 tetgen-tetgen.o
                                       0x3c50 (size before relaxing)
 .eh_frame      0x0000000000489590       0x60 /usr/lib/x86_64-linux-gnu/libc_nonshared.a(elf-init.oS)
                                         0x78 (size before relaxing)
 .eh_frame      0x00000000004895f0        0x4 /usr/lib/gcc/x86_64-linux-gnu/4.8/crtend.o

.gcc_except_table
                0x00000000004895f4      0x572
 *(.gcc_except_table .gcc_except_table.*)
 .gcc_except_table._ZN10tetgenmesh4linkC2EiPFiPKvS2_Ei
                0x00000000004895f4        0xc tetgen-tetgen.o
 .gcc_except_table._ZN8tetgenio8load_stlEPc
                0x0000000000489600       0x16 tetgen-tetgen.o
 .gcc_except_table._ZN10tetgenmesh15initializepoolsEv
                0x0000000000489616       0x35 tetgen-tetgen.o
 .gcc_except_table._ZN10tetgenmesh15formbowatcavityEPdPNS_4faceES2_PiS3_PPNS_4listES6_S6_S6_
                0x000000000048964b       0x4e tetgen-tetgen.o
 .gcc_except_table._ZN10tetgenmesh17delaunizeverticesEv
                0x0000000000489699       0x14 tetgen-tetgen.o
 .gcc_except_table._ZN10tetgenmesh18getfacetabovepointEPNS_4faceE
                0x00000000004896ad       0x29 tetgen-tetgen.o
 .gcc_except_table._ZN10tetgenmesh14recoversegmentEPdS0_PNS_5queueE
                0x00000000004896d6       0x14 tetgen-tetgen.o
 .gcc_except_table._ZN10tetgenmesh13unifysegmentsEv
                0x00000000004896ea       0x14 tetgen-tetgen.o
 .gcc_except_table._ZN10tetgenmesh11meshsurfaceEv
                0x00000000004896fe       0x36 tetgen-tetgen.o
 .gcc_except_table._ZN10tetgenmesh22createsegpbcgrouptableEv
                0x0000000000489734       0x13 tetgen-tetgen.o
 .gcc_except_table._ZN10tetgenmesh19incrperturbverticesEd
                0x0000000000489747       0x33 tetgen-tetgen.o
 .gcc_except_table._ZN10tetgenmesh17delaunizesegmentsEv
                0x000000000048977a       0x15 tetgen-tetgen.o
 .gcc_except_table._ZN10tetgenmesh17rearrangesubfacesEPNS_4listES1_S1_Pi
                0x000000000048978f       0x20 tetgen-tetgen.o
 .gcc_except_table._ZN10tetgenmesh17constrainedfacetsEv
                0x00000000004897af       0xb9 tetgen-tetgen.o
 .gcc_except_table._ZN10tetgenmesh19assignregionattribsEv
                0x0000000000489868       0x1f tetgen-tetgen.o
 .gcc_except_table._ZN10tetgenmesh10carveholesEv
                0x0000000000489887       0x20 tetgen-tetgen.o
 .gcc_except_table._ZN10tetgenmesh18suppressfacetpointEPNS_4faceEPNS_4listES3_S3_S3_PNS_10memorypoolEPNS_5queueE
                0x00000000004898a7       0x37 tetgen-tetgen.o
 .gcc_except_table._ZN10tetgenmesh16suppresssegpointEPNS_4faceEPNS_4listES3_S3_S3_S3_S3_PNS_10memorypoolEPNS_5queueE
                0x00000000004898de       0x43 tetgen-tetgen.o
 .gcc_except_table._ZN10tetgenmesh16suppressvolpointEPdPNS_4listES2_S2_PNS_5queueE
                0x0000000000489921       0x2b tetgen-tetgen.o
 .gcc_except_table._ZN10tetgenmesh14removesteinersEv
                0x000000000048994c       0x5f tetgen-tetgen.o
 .gcc_except_table._ZN10tetgenmesh15reconstructmeshEv
                0x00000000004899ab       0x22 tetgen-tetgen.o
 .gcc_except_table._ZN10tetgenmesh15insertaddpointsEv
                0x00000000004899cd       0x13 tetgen-tetgen.o
 .gcc_except_table._ZN10tetgenmesh21calclocalfeaturesizesEv
                0x00000000004899e0       0x1f tetgen-tetgen.o
 .gcc_except_table._ZN10tetgenmesh16marksharpsubsegsEd
                0x00000000004899ff       0x15 tetgen-tetgen.o
 .gcc_except_table._ZN10tetgenmesh18markskinnysubfacesEd
                0x0000000000489a14       0x15 tetgen-tetgen.o
 .gcc_except_table._ZN10tetgenmesh13repairencsegsEbb
                0x0000000000489a29       0x37 tetgen-tetgen.o
 .gcc_except_table._ZN10tetgenmesh13repairencsubsEb
                0x0000000000489a60       0x14 tetgen-tetgen.o
 .gcc_except_table._ZN10tetgenmesh13repairbadtetsEv
                0x0000000000489a74       0x27 tetgen-tetgen.o
 .gcc_except_table._ZN10tetgenmesh14enforcequalityEv
                0x0000000000489a9b       0x2d tetgen-tetgen.o
 .gcc_except_table._ZN10tetgenmesh16removetetbysplitEPNS_7badfaceE
                0x0000000000489ac8       0x44 tetgen-tetgen.o
 .gcc_except_table._ZN10tetgenmesh10repairmeshEv
                0x0000000000489b0c       0x13 tetgen-tetgen.o
 .gcc_except_table._ZN10tetgenmesh10smoothmeshEv
                0x0000000000489b1f       0x13 tetgen-tetgen.o
 .gcc_except_table._ZN10tetgenmesh11outpbcnodesEP8tetgenio
                0x0000000000489b32       0x16 tetgen-tetgen.o
 .gcc_except_table._Z14tetrahedralizeP14tetgenbehaviorP8tetgenioS2_S2_
                0x0000000000489b48        0xf tetgen-tetgen.o
 .gcc_except_table.main
                0x0000000000489b57        0xf tetgen-tetgen.o

.exception_ranges
 *(.exception_ranges .exception_ranges*)
                0x0000000000489b66                . = (ALIGN (0x200000) - ((0x200000 - .) & 0x1fffff))
                0x0000000000689dde                . = DATA_SEGMENT_ALIGN (0x200000, 0x1000)

.eh_frame
 *(.eh_frame)

.gcc_except_table
 *(.gcc_except_table .gcc_except_table.*)

.exception_ranges
 *(.exception_ranges .exception_ranges*)

.tdata
 *(.tdata .tdata.* .gnu.linkonce.td.*)

.tbss
 *(.tbss .tbss.* .gnu.linkonce.tb.*)
 *(.tcommon)

.preinit_array  0x0000000000689dde        0x0
                0x0000000000689dde                PROVIDE (__preinit_array_start, .)
 *(.preinit_array)
                0x0000000000689dde                PROVIDE (__preinit_array_end, .)

.init_array     0x0000000000689de0        0x8
                0x0000000000689de0                PROVIDE (__init_array_start, .)
 *(SORT(.init_array.*) SORT(.ctors.*))
 *(.init_array EXCLUDE_FILE(*crtend?.o *crtend.o *crtbegin?.o *crtbegin.o) .ctors)
 .init_array    0x0000000000689de0        0x8 /usr/lib/gcc/x86_64-linux-gnu/4.8/crtbegin.o
                0x0000000000689de8                PROVIDE (__init_array_end, .)

.fini_array     0x0000000000689de8        0x8
                0x0000000000689de8                PROVIDE (__fini_array_start, .)
 *(SORT(.fini_array.*) SORT(.dtors.*))
 *(.fini_array EXCLUDE_FILE(*crtend?.o *crtend.o *crtbegin?.o *crtbegin.o) .dtors)
 .fini_array    0x0000000000689de8        0x8 /usr/lib/gcc/x86_64-linux-gnu/4.8/crtbegin.o
                0x0000000000689df0                PROVIDE (__fini_array_end, .)

.ctors
 *crtbegin.o(.ctors)
 *crtbegin?.o(.ctors)
 *(EXCLUDE_FILE(*crtend?.o *crtend.o) .ctors)
 *(SORT(.ctors.*))
 *(.ctors)

.dtors
 *crtbegin.o(.dtors)
 *crtbegin?.o(.dtors)
 *(EXCLUDE_FILE(*crtend?.o *crtend.o) .dtors)
 *(SORT(.dtors.*))
 *(.dtors)

.jcr            0x0000000000689df0        0x8
 *(.jcr)
 .jcr           0x0000000000689df0        0x0 /usr/lib/gcc/x86_64-linux-gnu/4.8/crtbegin.o
 .jcr           0x0000000000689df0        0x8 /usr/lib/gcc/x86_64-linux-gnu/4.8/crtend.o

.data.rel.ro
 *(.data.rel.ro.local* .gnu.linkonce.d.rel.ro.local.*)
 *(.data.rel.ro .data.rel.ro.* .gnu.linkonce.d.rel.ro.*)

.dynamic        0x0000000000689df8      0x200
 *(.dynamic)
 .dynamic       0x0000000000689df8      0x200 /usr/lib/gcc/x86_64-linux-gnu/4.8/../../../x86_64-linux-gnu/crt1.o
                0x0000000000689df8                _DYNAMIC

.got            0x0000000000689ff8        0x8
 *(.got)
 .got           0x0000000000689ff8        0x8 /usr/lib/gcc/x86_64-linux-gnu/4.8/../../../x86_64-linux-gnu/crt1.o
 *(.igot)
                0x000000000068afe8                . = DATA_SEGMENT_RELRO_END (., (SIZEOF (.got.plt) >= 0x18)?0x18:0x0)

.got.plt        0x000000000068a000      0x150
 *(.got.plt)
 .got.plt       0x000000000068a000      0x150 /usr/lib/gcc/x86_64-linux-gnu/4.8/../../../x86_64-linux-gnu/crt1.o
                0x000000000068a000                _GLOBAL_OFFSET_TABLE_
 *(.igot.plt)
 .igot.plt      0x0000000000000000        0x0 /usr/lib/gcc/x86_64-linux-gnu/4.8/../../../x86_64-linux-gnu/crt1.o

.data           0x000000000068a160      0x2a0
 *(.data .data.* .gnu.linkonce.d.*)
 .data._ZL2PI   0x000000000068a160        0x8 tetgen-tetgen.o
 *fill*         0x000000000068a168        0x8 
 .data._ZN10tetgenmesh2veE
                0x000000000068a170       0x18 tetgen-tetgen.o
                0x000000000068a170                _ZN10tetgenmesh2veE
 *fill*         0x000000000068a188        0x8 
 .data._ZN10tetgenmesh2voE
                0x000000000068a190       0x18 tetgen-tetgen.o
                0x000000000068a190                _ZN10tetgenmesh2voE
 *fill*         0x000000000068a1a8        0x8 
 .data._ZN10tetgenmesh2vdE
                0x000000000068a1b0       0x18 tetgen-tetgen.o
                0x000000000068a1b0                _ZN10tetgenmesh2vdE
 *fill*         0x000000000068a1c8        0x8 
 .data._ZN10tetgenmesh2vaE
                0x000000000068a1d0       0x18 tetgen-tetgen.o
                0x000000000068a1d0                _ZN10tetgenmesh2vaE
 *fill*         0x000000000068a1e8       0x18 
 .data._ZN10tetgenmesh10locver2orgE
                0x000000000068a200       0x60 tetgen-tetgen.o
                0x000000000068a200                _ZN10tetgenmesh10locver2orgE
 .data._ZN10tetgenmesh11locver2destE
                0x000000000068a260       0x60 tetgen-tetgen.o
                0x000000000068a260                _ZN10tetgenmesh11locver2destE
 .data._ZN10tetgenmesh11locver2apexE
                0x000000000068a2c0       0x60 tetgen-tetgen.o
                0x000000000068a2c0                _ZN10tetgenmesh11locver2apexE
 .data._ZN10tetgenmesh8loc2oppoE
                0x000000000068a320       0x10 tetgen-tetgen.o
                0x000000000068a320                _ZN10tetgenmesh8loc2oppoE
 *fill*         0x000000000068a330       0x10 
 .data._ZN10tetgenmesh12locver2nextfE
                0x000000000068a340       0xc0 tetgen-tetgen.o
                0x000000000068a340                _ZN10tetgenmesh12locver2nextfE

.tm_clone_table
                0x000000000068a400        0x0
 .tm_clone_table
                0x000000000068a400        0x0 /usr/lib/gcc/x86_64-linux-gnu/4.8/crtbegin.o
 .tm_clone_table
                0x000000000068a400        0x0 /usr/lib/gcc/x86_64-linux-gnu/4.8/crtend.o

.data1
 *(.data1)
                0x000000000068a400                _edata = .
                0x000000000068a400                PROVIDE (edata, .)
                0x000000000068a400                . = .
                0x000000000068a400                __bss_start = .

.bss            0x000000000068a400       0x80
 *(.dynbss)
 .dynbss        0x0000000000000000        0x0 /usr/lib/gcc/x86_64-linux-gnu/4.8/../../../x86_64-linux-gnu/crt1.o
 *(.bss .bss.* .gnu.linkonce.b.*)
 .bss           0x000000000068a400        0x1 /usr/lib/gcc/x86_64-linux-gnu/4.8/crtbegin.o
 *fill*         0x000000000068a401        0x7 
 .bss._ZL8splitter
                0x000000000068a408        0x8 tetgen-predicates.o
 .bss._ZL7epsilon
                0x000000000068a410        0x8 tetgen-predicates.o
 .bss._ZL14resulterrbound
                0x000000000068a418        0x8 tetgen-predicates.o
 .bss._ZL12ccwerrboundA
                0x000000000068a420        0x8 tetgen-predicates.o
 .bss._ZL12ccwerrboundB
                0x000000000068a428        0x8 tetgen-predicates.o
 .bss._ZL12ccwerrboundC
                0x000000000068a430        0x8 tetgen-predicates.o
 .bss._ZL12o3derrboundA
                0x000000000068a438        0x8 tetgen-predicates.o
 .bss._ZL12o3derrboundB
                0x000000000068a440        0x8 tetgen-predicates.o
 .bss._ZL12o3derrboundC
                0x000000000068a448        0x8 tetgen-predicates.o
 .bss._ZL12iccerrboundA
                0x000000000068a450        0x8 tetgen-predicates.o
 .bss._ZL12iccerrboundB
                0x000000000068a458        0x8 tetgen-predicates.o
 .bss._ZL12iccerrboundC
                0x000000000068a460        0x8 tetgen-predicates.o
 .bss._ZL12isperrboundA
                0x000000000068a468        0x8 tetgen-predicates.o
 .bss._ZL12isperrboundB
                0x000000000068a470        0x8 tetgen-predicates.o
 .bss._ZL12isperrboundC
                0x000000000068a478        0x8 tetgen-predicates.o
 *(COMMON)
                0x000000000068a480                . = ALIGN ((. != 0x0)?0x8:0x1)

.lbss
 *(.dynlbss)
 *(.lbss .lbss.* .gnu.linkonce.lb.*)
 *(LARGE_COMMON)
                0x000000000068a480                . = ALIGN (0x8)
                0x000000000068a480                . = SEGMENT_START ("ldata-segment", .)

.lrodata
 *(.lrodata .lrodata.* .gnu.linkonce.lr.*)

.ldata          0x0000000000a8a480        0x0
 *(.ldata .ldata.* .gnu.linkonce.l.*)
                0x0000000000a8a480                . = ALIGN ((. != 0x0)?0x8:0x1)
                0x0000000000a8a480                . = ALIGN (0x8)
                0x0000000000a8a480                _end = .
                0x0000000000a8a480                PROVIDE (end, .)
                0x0000000000a8a480                . = DATA_SEGMENT_END (.)

.stab
 *(.stab)

.stabstr
 *(.stabstr)

.stab.excl
 *(.stab.excl)

.stab.exclstr
 *(.stab.exclstr)

.stab.index
 *(.stab.index)

.stab.indexstr
 *(.stab.indexstr)

.comment        0x0000000000000000       0x56
 *(.comment)
 .comment       0x0000000000000000       0x2b /usr/lib/gcc/x86_64-linux-gnu/4.8/crtbegin.o
                                         0x2c (size before relaxing)
 .comment       0x0000000000000000       0x2c tetgen-predicates.o
 .comment       0x0000000000000000       0x2c tetgen-tetgen.o
 .comment       0x000000000000002b       0x2b /usr/lib/x86_64-linux-gnu/libc_nonshared.a(elf-init.oS)
                                         0x2c (size before relaxing)
 .comment       0x0000000000000000       0x2c /usr/lib/gcc/x86_64-linux-gnu/4.8/crtend.o

.debug
 *(.debug)

.line
 *(.line)

.debug_srcinfo
 *(.debug_srcinfo)

.debug_sfnames
 *(.debug_sfnames)

.debug_aranges  0x0000000000000000     0x1eb0
 *(.debug_aranges)
 .debug_aranges
                0x0000000000000000      0x240 tetgen-predicates.o
 .debug_aranges
                0x0000000000000240     0x1c70 tetgen-tetgen.o

.debug_pubnames
 *(.debug_pubnames)

.debug_info     0x0000000000000000    0x223ec
 *(.debug_info .gnu.linkonce.wi.*)
 .debug_info    0x0000000000000000     0x7211 tetgen-predicates.o
 .debug_info    0x0000000000007211    0x1b1db tetgen-tetgen.o

.debug_abbrev   0x0000000000000000      0x64b
 *(.debug_abbrev)
 .debug_abbrev  0x0000000000000000       0xcb tetgen-predicates.o
 .debug_abbrev  0x00000000000000cb      0x580 tetgen-tetgen.o

.debug_line     0x0000000000000000    0x122f4
 *(.debug_line .debug_line.* .debug_line_end)
 .debug_line    0x0000000000000000     0x206a tetgen-predicates.o
 .debug_line    0x000000000000206a    0x1028a tetgen-tetgen.o

.debug_frame
 *(.debug_frame)

.debug_str      0x0000000000000000     0x9e01
 *(.debug_str)
 .debug_str     0x0000000000000000     0x15c8 tetgen-predicates.o
                                       0x170d (size before relaxing)
 .debug_str     0x00000000000015c8     0x8839 tetgen-tetgen.o
                                       0x91a7 (size before relaxing)

.debug_loc
 *(.debug_loc)

.debug_macinfo
 *(.debug_macinfo)

.debug_weaknames
 *(.debug_weaknames)

.debug_funcnames
 *(.debug_funcnames)

.debug_typenames
 *(.debug_typenames)

.debug_varnames
 *(.debug_varnames)

.debug_pubtypes
 *(.debug_pubtypes)

.debug_ranges   0x0000000000000000     0x1f80
 *(.debug_ranges)
 .debug_ranges  0x0000000000000000      0x230 tetgen-predicates.o
 .debug_ranges  0x0000000000000230     0x1d50 tetgen-tetgen.o

.debug_macro
 *(.debug_macro)

.gnu.attributes
 *(.gnu.attributes)

/DISCARD/
 *(.note.GNU-stack)
 *(.gnu_debuglink)
 *(.gnu.lto_*)
OUTPUT(tetgen elf64-x86-64)
